
x264/common/x86/pixel-a-8.o:     file format elf64-x86-64


Disassembly of section .text:

0000000000000000 <x264_8_pixel_ssd_16x16_mmx>:
       0:	b0 10                	mov    al,0x10
       2:	0f ef ff             	pxor   mm7,mm7
       5:	0f ef c0             	pxor   mm0,mm0
       8:	0f 1f 84 00 00 00 00 	nop    DWORD PTR [rax+rax*1+0x0]
       f:	00 
      10:	0f 6f 0f             	movq   mm1,QWORD PTR [rdi]
      13:	0f 6f 12             	movq   mm2,QWORD PTR [rdx]
      16:	0f 6f 5f 08          	movq   mm3,QWORD PTR [rdi+0x8]
      1a:	0f 6f 62 08          	movq   mm4,QWORD PTR [rdx+0x8]
      1e:	48 01 f7             	add    rdi,rsi
      21:	48 01 ca             	add    rdx,rcx
      24:	0f 6f ea             	movq   mm5,mm2
      27:	0f 6f f4             	movq   mm6,mm4
      2a:	0f d8 d1             	psubusb mm2,mm1
      2d:	0f d8 e3             	psubusb mm4,mm3
      30:	0f d8 cd             	psubusb mm1,mm5
      33:	0f d8 de             	psubusb mm3,mm6
      36:	0f eb ca             	por    mm1,mm2
      39:	0f eb dc             	por    mm3,mm4
      3c:	0f 6f d1             	movq   mm2,mm1
      3f:	0f 60 d7             	punpcklbw mm2,mm7
      42:	0f 68 cf             	punpckhbw mm1,mm7
      45:	0f 6f e3             	movq   mm4,mm3
      48:	0f 60 e7             	punpcklbw mm4,mm7
      4b:	0f 68 df             	punpckhbw mm3,mm7
      4e:	0f f5 c9             	pmaddwd mm1,mm1
      51:	0f f5 d2             	pmaddwd mm2,mm2
      54:	0f f5 db             	pmaddwd mm3,mm3
      57:	0f f5 e4             	pmaddwd mm4,mm4
      5a:	0f fe ca             	paddd  mm1,mm2
      5d:	0f fe dc             	paddd  mm3,mm4
      60:	0f fe c1             	paddd  mm0,mm1
      63:	0f fe c3             	paddd  mm0,mm3
      66:	fe c8                	dec    al
      68:	7f a6                	jg     10 <x264_8_pixel_ssd_16x16_mmx+0x10>
      6a:	0f 70 c8 4e          	pshufw mm1,mm0,0x4e
      6e:	0f fe c1             	paddd  mm0,mm1
      71:	0f 7e c0             	movd   eax,mm0
      74:	c3                   	ret    
      75:	0f 1f 00             	nop    DWORD PTR [rax]

0000000000000078 <x264_8_pixel_ssd_16x8_mmx>:
      78:	b0 08                	mov    al,0x8
      7a:	eb 86                	jmp    2 <x264_8_pixel_ssd_16x16_mmx+0x2>
      7c:	0f 1f 40 00          	nop    DWORD PTR [rax+0x0]

0000000000000080 <x264_8_pixel_ssd_8x8_mmx>:
      80:	b0 04                	mov    al,0x4
      82:	0f ef ff             	pxor   mm7,mm7
      85:	0f ef c0             	pxor   mm0,mm0
      88:	0f 1f 84 00 00 00 00 	nop    DWORD PTR [rax+rax*1+0x0]
      8f:	00 
      90:	0f 6f 0f             	movq   mm1,QWORD PTR [rdi]
      93:	0f 6f 12             	movq   mm2,QWORD PTR [rdx]
      96:	0f 6f 1c 37          	movq   mm3,QWORD PTR [rdi+rsi*1]
      9a:	0f 6f 24 0a          	movq   mm4,QWORD PTR [rdx+rcx*1]
      9e:	48 8d 3c 77          	lea    rdi,[rdi+rsi*2]
      a2:	48 8d 14 4a          	lea    rdx,[rdx+rcx*2]
      a6:	0f 6f ea             	movq   mm5,mm2
      a9:	0f 6f f4             	movq   mm6,mm4
      ac:	0f d8 d1             	psubusb mm2,mm1
      af:	0f d8 e3             	psubusb mm4,mm3
      b2:	0f d8 cd             	psubusb mm1,mm5
      b5:	0f d8 de             	psubusb mm3,mm6
      b8:	0f eb ca             	por    mm1,mm2
      bb:	0f eb dc             	por    mm3,mm4
      be:	0f 6f d1             	movq   mm2,mm1
      c1:	0f 60 d7             	punpcklbw mm2,mm7
      c4:	0f 68 cf             	punpckhbw mm1,mm7
      c7:	0f 6f e3             	movq   mm4,mm3
      ca:	0f 60 e7             	punpcklbw mm4,mm7
      cd:	0f 68 df             	punpckhbw mm3,mm7
      d0:	0f f5 c9             	pmaddwd mm1,mm1
      d3:	0f f5 d2             	pmaddwd mm2,mm2
      d6:	0f f5 db             	pmaddwd mm3,mm3
      d9:	0f f5 e4             	pmaddwd mm4,mm4
      dc:	0f fe ca             	paddd  mm1,mm2
      df:	0f fe dc             	paddd  mm3,mm4
      e2:	0f fe c1             	paddd  mm0,mm1
      e5:	0f fe c3             	paddd  mm0,mm3
      e8:	fe c8                	dec    al
      ea:	7f a4                	jg     90 <x264_8_pixel_ssd_8x8_mmx+0x10>
      ec:	0f 70 c8 4e          	pshufw mm1,mm0,0x4e
      f0:	0f fe c1             	paddd  mm0,mm1
      f3:	0f 7e c0             	movd   eax,mm0
      f6:	c3                   	ret    
      f7:	90                   	nop

00000000000000f8 <x264_8_pixel_ssd_8x16_mmx>:
      f8:	b0 08                	mov    al,0x8
      fa:	eb 86                	jmp    82 <x264_8_pixel_ssd_8x8_mmx+0x2>
      fc:	0f 1f 40 00          	nop    DWORD PTR [rax+0x0]

0000000000000100 <x264_8_pixel_ssd_4x4_mmx>:
     100:	b0 01                	mov    al,0x1
     102:	0f ef c0             	pxor   mm0,mm0
     105:	0f 1f 84 00 00 00 00 	nop    DWORD PTR [rax+rax*1+0x0]
     10c:	00 
     10d:	0f 1f 00             	nop    DWORD PTR [rax]
     110:	0f 6e 0f             	movd   mm1,DWORD PTR [rdi]
     113:	0f 6e 14 37          	movd   mm2,DWORD PTR [rdi+rsi*1]
     117:	48 8d 3c 77          	lea    rdi,[rdi+rsi*2]
     11b:	0f 6e 1a             	movd   mm3,DWORD PTR [rdx]
     11e:	0f 6e 24 0a          	movd   mm4,DWORD PTR [rdx+rcx*1]
     122:	48 8d 14 4a          	lea    rdx,[rdx+rcx*2]
     126:	0f 60 cf             	punpcklbw mm1,mm7
     129:	0f 60 df             	punpcklbw mm3,mm7
     12c:	0f f9 cb             	psubw  mm1,mm3
     12f:	0f 60 d7             	punpcklbw mm2,mm7
     132:	0f 60 e7             	punpcklbw mm4,mm7
     135:	0f f9 d4             	psubw  mm2,mm4
     138:	0f 6e 1f             	movd   mm3,DWORD PTR [rdi]
     13b:	0f 6e 24 37          	movd   mm4,DWORD PTR [rdi+rsi*1]
     13f:	48 8d 3c 77          	lea    rdi,[rdi+rsi*2]
     143:	0f 6e 2a             	movd   mm5,DWORD PTR [rdx]
     146:	0f 6e 34 0a          	movd   mm6,DWORD PTR [rdx+rcx*1]
     14a:	48 8d 14 4a          	lea    rdx,[rdx+rcx*2]
     14e:	0f 60 df             	punpcklbw mm3,mm7
     151:	0f 60 ef             	punpcklbw mm5,mm7
     154:	0f f9 dd             	psubw  mm3,mm5
     157:	0f 60 e7             	punpcklbw mm4,mm7
     15a:	0f 60 f7             	punpcklbw mm6,mm7
     15d:	0f f9 e6             	psubw  mm4,mm6
     160:	0f f5 c9             	pmaddwd mm1,mm1
     163:	0f f5 d2             	pmaddwd mm2,mm2
     166:	0f f5 db             	pmaddwd mm3,mm3
     169:	0f f5 e4             	pmaddwd mm4,mm4
     16c:	0f fe ca             	paddd  mm1,mm2
     16f:	0f fe dc             	paddd  mm3,mm4
     172:	0f fe c1             	paddd  mm0,mm1
     175:	0f fe c3             	paddd  mm0,mm3
     178:	fe c8                	dec    al
     17a:	7f 94                	jg     110 <x264_8_pixel_ssd_4x4_mmx+0x10>
     17c:	0f 70 c8 4e          	pshufw mm1,mm0,0x4e
     180:	0f fe c1             	paddd  mm0,mm1
     183:	0f 7e c0             	movd   eax,mm0
     186:	c3                   	ret    
     187:	90                   	nop

0000000000000188 <x264_8_pixel_ssd_8x4_mmx>:
     188:	b0 02                	mov    al,0x2
     18a:	e9 f3 fe ff ff       	jmp    82 <x264_8_pixel_ssd_8x8_mmx+0x2>
     18f:	90                   	nop

0000000000000190 <x264_8_pixel_ssd_4x8_mmx>:
     190:	b0 02                	mov    al,0x2
     192:	e9 6b ff ff ff       	jmp    102 <x264_8_pixel_ssd_4x4_mmx+0x2>
     197:	90                   	nop

0000000000000198 <x264_8_pixel_ssd_4x16_mmx>:
     198:	b0 04                	mov    al,0x4
     19a:	e9 63 ff ff ff       	jmp    102 <x264_8_pixel_ssd_4x4_mmx+0x2>
     19f:	90                   	nop

00000000000001a0 <x264_8_pixel_ssd_16x16_sse2slow>:
     1a0:	b0 08                	mov    al,0x8
     1a2:	66 0f ef ff          	pxor   xmm7,xmm7
     1a6:	66 0f ef c0          	pxor   xmm0,xmm0
     1aa:	66 0f 1f 44 00 00    	nop    WORD PTR [rax+rax*1+0x0]
     1b0:	66 0f 6f 0f          	movdqa xmm1,XMMWORD PTR [rdi]
     1b4:	66 0f 6f 12          	movdqa xmm2,XMMWORD PTR [rdx]
     1b8:	66 0f 6f 1c 37       	movdqa xmm3,XMMWORD PTR [rdi+rsi*1]
     1bd:	66 0f 6f 24 0a       	movdqa xmm4,XMMWORD PTR [rdx+rcx*1]
     1c2:	48 8d 3c 77          	lea    rdi,[rdi+rsi*2]
     1c6:	48 8d 14 4a          	lea    rdx,[rdx+rcx*2]
     1ca:	66 0f 6f ea          	movdqa xmm5,xmm2
     1ce:	66 0f 6f f4          	movdqa xmm6,xmm4
     1d2:	66 0f d8 d1          	psubusb xmm2,xmm1
     1d6:	66 0f d8 e3          	psubusb xmm4,xmm3
     1da:	66 0f d8 cd          	psubusb xmm1,xmm5
     1de:	66 0f d8 de          	psubusb xmm3,xmm6
     1e2:	66 0f eb ca          	por    xmm1,xmm2
     1e6:	66 0f eb dc          	por    xmm3,xmm4
     1ea:	66 0f 6f d1          	movdqa xmm2,xmm1
     1ee:	66 0f 60 d7          	punpcklbw xmm2,xmm7
     1f2:	66 0f 68 cf          	punpckhbw xmm1,xmm7
     1f6:	66 0f 6f e3          	movdqa xmm4,xmm3
     1fa:	66 0f 60 e7          	punpcklbw xmm4,xmm7
     1fe:	66 0f 68 df          	punpckhbw xmm3,xmm7
     202:	66 0f f5 c9          	pmaddwd xmm1,xmm1
     206:	66 0f f5 d2          	pmaddwd xmm2,xmm2
     20a:	66 0f f5 db          	pmaddwd xmm3,xmm3
     20e:	66 0f f5 e4          	pmaddwd xmm4,xmm4
     212:	66 0f fe ca          	paddd  xmm1,xmm2
     216:	66 0f fe dc          	paddd  xmm3,xmm4
     21a:	66 0f fe c1          	paddd  xmm0,xmm1
     21e:	66 0f fe c3          	paddd  xmm0,xmm3
     222:	fe c8                	dec    al
     224:	7f 8a                	jg     1b0 <x264_8_pixel_ssd_16x16_sse2slow+0x10>
     226:	0f 12 c8             	movhlps xmm1,xmm0
     229:	66 0f fe c1          	paddd  xmm0,xmm1
     22d:	f2 0f 70 c8 4e       	pshuflw xmm1,xmm0,0x4e
     232:	66 0f fe c1          	paddd  xmm0,xmm1
     236:	66 0f 7e c0          	movd   eax,xmm0
     23a:	c3                   	ret    
     23b:	0f 1f 44 00 00       	nop    DWORD PTR [rax+rax*1+0x0]

0000000000000240 <x264_8_pixel_ssd_8x8_sse2slow>:
     240:	b0 02                	mov    al,0x2
     242:	66 0f ef c0          	pxor   xmm0,xmm0
     246:	0f 1f 84 00 00 00 00 	nop    DWORD PTR [rax+rax*1+0x0]
     24d:	00 
     24e:	66 90                	xchg   ax,ax
     250:	f3 0f 7e 0f          	movq   xmm1,QWORD PTR [rdi]
     254:	f3 0f 7e 14 37       	movq   xmm2,QWORD PTR [rdi+rsi*1]
     259:	48 8d 3c 77          	lea    rdi,[rdi+rsi*2]
     25d:	f3 0f 7e 1a          	movq   xmm3,QWORD PTR [rdx]
     261:	f3 0f 7e 24 0a       	movq   xmm4,QWORD PTR [rdx+rcx*1]
     266:	48 8d 14 4a          	lea    rdx,[rdx+rcx*2]
     26a:	66 0f 60 cf          	punpcklbw xmm1,xmm7
     26e:	66 0f 60 df          	punpcklbw xmm3,xmm7
     272:	66 0f f9 cb          	psubw  xmm1,xmm3
     276:	66 0f 60 d7          	punpcklbw xmm2,xmm7
     27a:	66 0f 60 e7          	punpcklbw xmm4,xmm7
     27e:	66 0f f9 d4          	psubw  xmm2,xmm4
     282:	f3 0f 7e 1f          	movq   xmm3,QWORD PTR [rdi]
     286:	f3 0f 7e 24 37       	movq   xmm4,QWORD PTR [rdi+rsi*1]
     28b:	48 8d 3c 77          	lea    rdi,[rdi+rsi*2]
     28f:	f3 0f 7e 2a          	movq   xmm5,QWORD PTR [rdx]
     293:	f3 0f 7e 34 0a       	movq   xmm6,QWORD PTR [rdx+rcx*1]
     298:	48 8d 14 4a          	lea    rdx,[rdx+rcx*2]
     29c:	66 0f 60 df          	punpcklbw xmm3,xmm7
     2a0:	66 0f 60 ef          	punpcklbw xmm5,xmm7
     2a4:	66 0f f9 dd          	psubw  xmm3,xmm5
     2a8:	66 0f 60 e7          	punpcklbw xmm4,xmm7
     2ac:	66 0f 60 f7          	punpcklbw xmm6,xmm7
     2b0:	66 0f f9 e6          	psubw  xmm4,xmm6
     2b4:	66 0f f5 c9          	pmaddwd xmm1,xmm1
     2b8:	66 0f f5 d2          	pmaddwd xmm2,xmm2
     2bc:	66 0f f5 db          	pmaddwd xmm3,xmm3
     2c0:	66 0f f5 e4          	pmaddwd xmm4,xmm4
     2c4:	66 0f fe ca          	paddd  xmm1,xmm2
     2c8:	66 0f fe dc          	paddd  xmm3,xmm4
     2cc:	66 0f fe c1          	paddd  xmm0,xmm1
     2d0:	66 0f fe c3          	paddd  xmm0,xmm3
     2d4:	fe c8                	dec    al
     2d6:	0f 8f 74 ff ff ff    	jg     250 <x264_8_pixel_ssd_8x8_sse2slow+0x10>
     2dc:	0f 12 c8             	movhlps xmm1,xmm0
     2df:	66 0f fe c1          	paddd  xmm0,xmm1
     2e3:	f2 0f 70 c8 4e       	pshuflw xmm1,xmm0,0x4e
     2e8:	66 0f fe c1          	paddd  xmm0,xmm1
     2ec:	66 0f 7e c0          	movd   eax,xmm0
     2f0:	c3                   	ret    
     2f1:	0f 1f 80 00 00 00 00 	nop    DWORD PTR [rax+0x0]

00000000000002f8 <x264_8_pixel_ssd_16x8_sse2slow>:
     2f8:	b0 04                	mov    al,0x4
     2fa:	e9 a3 fe ff ff       	jmp    1a2 <x264_8_pixel_ssd_16x16_sse2slow+0x2>
     2ff:	90                   	nop

0000000000000300 <x264_8_pixel_ssd_8x16_sse2slow>:
     300:	b0 04                	mov    al,0x4
     302:	e9 3b ff ff ff       	jmp    242 <x264_8_pixel_ssd_8x8_sse2slow+0x2>
     307:	90                   	nop

0000000000000308 <x264_8_pixel_ssd_8x4_sse2slow>:
     308:	b0 01                	mov    al,0x1
     30a:	e9 33 ff ff ff       	jmp    242 <x264_8_pixel_ssd_8x8_sse2slow+0x2>
     30f:	90                   	nop

0000000000000310 <x264_8_pixel_ssd_16x16_sse2>:
     310:	b0 08                	mov    al,0x8
     312:	66 0f 6f 3d 00 00 00 	movdqa xmm7,XMMWORD PTR [rip+0x0]        # 31a <x264_8_pixel_ssd_16x16_sse2+0xa>
     319:	00 
     31a:	66 0f ef c0          	pxor   xmm0,xmm0
     31e:	66 90                	xchg   ax,ax
     320:	66 0f 6f 0f          	movdqa xmm1,XMMWORD PTR [rdi]
     324:	66 0f 6f 12          	movdqa xmm2,XMMWORD PTR [rdx]
     328:	66 0f 6f 1c 37       	movdqa xmm3,XMMWORD PTR [rdi+rsi*1]
     32d:	66 0f 6f 24 0a       	movdqa xmm4,XMMWORD PTR [rdx+rcx*1]
     332:	48 8d 3c 77          	lea    rdi,[rdi+rsi*2]
     336:	48 8d 14 4a          	lea    rdx,[rdx+rcx*2]
     33a:	66 0f 6f f7          	movdqa xmm6,xmm7
     33e:	66 0f db f2          	pand   xmm6,xmm2
     342:	66 0f 6f ef          	movdqa xmm5,xmm7
     346:	66 0f db e9          	pand   xmm5,xmm1
     34a:	66 0f 71 d1 08       	psrlw  xmm1,0x8
     34f:	66 0f 71 d2 08       	psrlw  xmm2,0x8
     354:	66 0f f9 ee          	psubw  xmm5,xmm6
     358:	66 0f f9 ca          	psubw  xmm1,xmm2
     35c:	66 0f 6f f7          	movdqa xmm6,xmm7
     360:	66 0f db f4          	pand   xmm6,xmm4
     364:	66 0f 6f d7          	movdqa xmm2,xmm7
     368:	66 0f db d3          	pand   xmm2,xmm3
     36c:	66 0f 71 d3 08       	psrlw  xmm3,0x8
     371:	66 0f 71 d4 08       	psrlw  xmm4,0x8
     376:	66 0f f9 d6          	psubw  xmm2,xmm6
     37a:	66 0f f9 dc          	psubw  xmm3,xmm4
     37e:	66 0f f5 ed          	pmaddwd xmm5,xmm5
     382:	66 0f f5 c9          	pmaddwd xmm1,xmm1
     386:	66 0f f5 d2          	pmaddwd xmm2,xmm2
     38a:	66 0f f5 db          	pmaddwd xmm3,xmm3
     38e:	66 0f fe e9          	paddd  xmm5,xmm1
     392:	66 0f fe d3          	paddd  xmm2,xmm3
     396:	66 0f fe c5          	paddd  xmm0,xmm5
     39a:	66 0f fe c2          	paddd  xmm0,xmm2
     39e:	fe c8                	dec    al
     3a0:	0f 8f 7a ff ff ff    	jg     320 <x264_8_pixel_ssd_16x16_sse2+0x10>
     3a6:	0f 12 e8             	movhlps xmm5,xmm0
     3a9:	66 0f fe c5          	paddd  xmm0,xmm5
     3ad:	f2 0f 70 e8 4e       	pshuflw xmm5,xmm0,0x4e
     3b2:	66 0f fe c5          	paddd  xmm0,xmm5
     3b6:	66 0f 7e c0          	movd   eax,xmm0
     3ba:	c3                   	ret    
     3bb:	0f 1f 44 00 00       	nop    DWORD PTR [rax+rax*1+0x0]

00000000000003c0 <x264_8_pixel_ssd_8x8_sse2>:
     3c0:	b0 02                	mov    al,0x2
     3c2:	66 0f 6f 3d 00 00 00 	movdqa xmm7,XMMWORD PTR [rip+0x0]        # 3ca <x264_8_pixel_ssd_8x8_sse2+0xa>
     3c9:	00 
     3ca:	66 0f ef c0          	pxor   xmm0,xmm0
     3ce:	66 90                	xchg   ax,ax
     3d0:	f3 0f 7e 0f          	movq   xmm1,QWORD PTR [rdi]
     3d4:	f3 0f 7e 14 37       	movq   xmm2,QWORD PTR [rdi+rsi*1]
     3d9:	48 8d 3c 77          	lea    rdi,[rdi+rsi*2]
     3dd:	f3 0f 7e 1a          	movq   xmm3,QWORD PTR [rdx]
     3e1:	f3 0f 7e 24 0a       	movq   xmm4,QWORD PTR [rdx+rcx*1]
     3e6:	48 8d 14 4a          	lea    rdx,[rdx+rcx*2]
     3ea:	66 0f 6c ca          	punpcklqdq xmm1,xmm2
     3ee:	66 0f 6c dc          	punpcklqdq xmm3,xmm4
     3f2:	66 0f 6f e7          	movdqa xmm4,xmm7
     3f6:	66 0f db e3          	pand   xmm4,xmm3
     3fa:	66 0f 6f d7          	movdqa xmm2,xmm7
     3fe:	66 0f db d1          	pand   xmm2,xmm1
     402:	66 0f 71 d1 08       	psrlw  xmm1,0x8
     407:	66 0f 71 d3 08       	psrlw  xmm3,0x8
     40c:	66 0f f9 d4          	psubw  xmm2,xmm4
     410:	66 0f f9 cb          	psubw  xmm1,xmm3
     414:	f3 0f 7e 1f          	movq   xmm3,QWORD PTR [rdi]
     418:	f3 0f 7e 24 37       	movq   xmm4,QWORD PTR [rdi+rsi*1]
     41d:	48 8d 3c 77          	lea    rdi,[rdi+rsi*2]
     421:	f3 0f 7e 2a          	movq   xmm5,QWORD PTR [rdx]
     425:	f3 0f 7e 34 0a       	movq   xmm6,QWORD PTR [rdx+rcx*1]
     42a:	48 8d 14 4a          	lea    rdx,[rdx+rcx*2]
     42e:	66 0f 6c dc          	punpcklqdq xmm3,xmm4
     432:	66 0f 6c ee          	punpcklqdq xmm5,xmm6
     436:	66 0f 6f f7          	movdqa xmm6,xmm7
     43a:	66 0f db f5          	pand   xmm6,xmm5
     43e:	66 0f 6f e7          	movdqa xmm4,xmm7
     442:	66 0f db e3          	pand   xmm4,xmm3
     446:	66 0f 71 d3 08       	psrlw  xmm3,0x8
     44b:	66 0f 71 d5 08       	psrlw  xmm5,0x8
     450:	66 0f f9 e6          	psubw  xmm4,xmm6
     454:	66 0f f9 dd          	psubw  xmm3,xmm5
     458:	66 0f f5 c9          	pmaddwd xmm1,xmm1
     45c:	66 0f f5 d2          	pmaddwd xmm2,xmm2
     460:	66 0f f5 db          	pmaddwd xmm3,xmm3
     464:	66 0f f5 e4          	pmaddwd xmm4,xmm4
     468:	66 0f fe ca          	paddd  xmm1,xmm2
     46c:	66 0f fe dc          	paddd  xmm3,xmm4
     470:	66 0f fe c1          	paddd  xmm0,xmm1
     474:	66 0f fe c3          	paddd  xmm0,xmm3
     478:	fe c8                	dec    al
     47a:	0f 8f 50 ff ff ff    	jg     3d0 <x264_8_pixel_ssd_8x8_sse2+0x10>
     480:	0f 12 c8             	movhlps xmm1,xmm0
     483:	66 0f fe c1          	paddd  xmm0,xmm1
     487:	f2 0f 70 c8 4e       	pshuflw xmm1,xmm0,0x4e
     48c:	66 0f fe c1          	paddd  xmm0,xmm1
     490:	66 0f 7e c0          	movd   eax,xmm0
     494:	c3                   	ret    
     495:	0f 1f 00             	nop    DWORD PTR [rax]

0000000000000498 <x264_8_pixel_ssd_16x8_sse2>:
     498:	b0 04                	mov    al,0x4
     49a:	e9 73 fe ff ff       	jmp    312 <x264_8_pixel_ssd_16x16_sse2+0x2>
     49f:	90                   	nop

00000000000004a0 <x264_8_pixel_ssd_8x16_sse2>:
     4a0:	b0 04                	mov    al,0x4
     4a2:	e9 1b ff ff ff       	jmp    3c2 <x264_8_pixel_ssd_8x8_sse2+0x2>
     4a7:	90                   	nop

00000000000004a8 <x264_8_pixel_ssd_8x4_sse2>:
     4a8:	b0 01                	mov    al,0x1
     4aa:	e9 13 ff ff ff       	jmp    3c2 <x264_8_pixel_ssd_8x8_sse2+0x2>
     4af:	90                   	nop

00000000000004b0 <x264_8_pixel_ssd_16x16_ssse3>:
     4b0:	b0 08                	mov    al,0x8
     4b2:	66 0f 6f 3d 00 00 00 	movdqa xmm7,XMMWORD PTR [rip+0x0]        # 4ba <x264_8_pixel_ssd_16x16_ssse3+0xa>
     4b9:	00 
     4ba:	66 0f ef c0          	pxor   xmm0,xmm0
     4be:	66 90                	xchg   ax,ax
     4c0:	66 0f 6f 0f          	movdqa xmm1,XMMWORD PTR [rdi]
     4c4:	66 0f 6f 12          	movdqa xmm2,XMMWORD PTR [rdx]
     4c8:	66 0f 6f 1c 37       	movdqa xmm3,XMMWORD PTR [rdi+rsi*1]
     4cd:	66 0f 6f 24 0a       	movdqa xmm4,XMMWORD PTR [rdx+rcx*1]
     4d2:	48 8d 3c 77          	lea    rdi,[rdi+rsi*2]
     4d6:	48 8d 14 4a          	lea    rdx,[rdx+rcx*2]
     4da:	66 0f 6f e9          	movdqa xmm5,xmm1
     4de:	66 0f 68 ea          	punpckhbw xmm5,xmm2
     4e2:	66 0f 6f f3          	movdqa xmm6,xmm3
     4e6:	66 0f 68 f4          	punpckhbw xmm6,xmm4
     4ea:	66 0f 60 ca          	punpcklbw xmm1,xmm2
     4ee:	66 0f 60 dc          	punpcklbw xmm3,xmm4
     4f2:	66 0f 38 04 cf       	pmaddubsw xmm1,xmm7
     4f7:	66 0f 38 04 df       	pmaddubsw xmm3,xmm7
     4fc:	66 0f 38 04 ef       	pmaddubsw xmm5,xmm7
     501:	66 0f 38 04 f7       	pmaddubsw xmm6,xmm7
     506:	66 0f f5 c9          	pmaddwd xmm1,xmm1
     50a:	66 0f f5 db          	pmaddwd xmm3,xmm3
     50e:	66 0f f5 ed          	pmaddwd xmm5,xmm5
     512:	66 0f f5 f6          	pmaddwd xmm6,xmm6
     516:	66 0f fe cb          	paddd  xmm1,xmm3
     51a:	66 0f fe ee          	paddd  xmm5,xmm6
     51e:	66 0f fe c1          	paddd  xmm0,xmm1
     522:	66 0f fe c5          	paddd  xmm0,xmm5
     526:	fe c8                	dec    al
     528:	7f 96                	jg     4c0 <x264_8_pixel_ssd_16x16_ssse3+0x10>
     52a:	0f 12 c8             	movhlps xmm1,xmm0
     52d:	66 0f fe c1          	paddd  xmm0,xmm1
     531:	f2 0f 70 c8 4e       	pshuflw xmm1,xmm0,0x4e
     536:	66 0f fe c1          	paddd  xmm0,xmm1
     53a:	66 0f 7e c0          	movd   eax,xmm0
     53e:	c3                   	ret    
     53f:	90                   	nop

0000000000000540 <x264_8_pixel_ssd_8x8_ssse3>:
     540:	b0 02                	mov    al,0x2
     542:	66 0f 6f 3d 00 00 00 	movdqa xmm7,XMMWORD PTR [rip+0x0]        # 54a <x264_8_pixel_ssd_8x8_ssse3+0xa>
     549:	00 
     54a:	66 0f ef c0          	pxor   xmm0,xmm0
     54e:	66 90                	xchg   ax,ax
     550:	f3 0f 7e 0f          	movq   xmm1,QWORD PTR [rdi]
     554:	f3 0f 7e 14 37       	movq   xmm2,QWORD PTR [rdi+rsi*1]
     559:	48 8d 3c 77          	lea    rdi,[rdi+rsi*2]
     55d:	f3 0f 7e 1a          	movq   xmm3,QWORD PTR [rdx]
     561:	f3 0f 7e 24 0a       	movq   xmm4,QWORD PTR [rdx+rcx*1]
     566:	48 8d 14 4a          	lea    rdx,[rdx+rcx*2]
     56a:	66 0f 60 cb          	punpcklbw xmm1,xmm3
     56e:	66 0f 60 d4          	punpcklbw xmm2,xmm4
     572:	f3 0f 7e 1f          	movq   xmm3,QWORD PTR [rdi]
     576:	f3 0f 7e 24 37       	movq   xmm4,QWORD PTR [rdi+rsi*1]
     57b:	48 8d 3c 77          	lea    rdi,[rdi+rsi*2]
     57f:	f3 0f 7e 2a          	movq   xmm5,QWORD PTR [rdx]
     583:	f3 0f 7e 34 0a       	movq   xmm6,QWORD PTR [rdx+rcx*1]
     588:	48 8d 14 4a          	lea    rdx,[rdx+rcx*2]
     58c:	66 0f 60 dd          	punpcklbw xmm3,xmm5
     590:	66 0f 60 e6          	punpcklbw xmm4,xmm6
     594:	66 0f 38 04 cf       	pmaddubsw xmm1,xmm7
     599:	66 0f 38 04 d7       	pmaddubsw xmm2,xmm7
     59e:	66 0f 38 04 df       	pmaddubsw xmm3,xmm7
     5a3:	66 0f 38 04 e7       	pmaddubsw xmm4,xmm7
     5a8:	66 0f f5 c9          	pmaddwd xmm1,xmm1
     5ac:	66 0f f5 d2          	pmaddwd xmm2,xmm2
     5b0:	66 0f f5 db          	pmaddwd xmm3,xmm3
     5b4:	66 0f f5 e4          	pmaddwd xmm4,xmm4
     5b8:	66 0f fe ca          	paddd  xmm1,xmm2
     5bc:	66 0f fe dc          	paddd  xmm3,xmm4
     5c0:	66 0f fe c1          	paddd  xmm0,xmm1
     5c4:	66 0f fe c3          	paddd  xmm0,xmm3
     5c8:	fe c8                	dec    al
     5ca:	7f 84                	jg     550 <x264_8_pixel_ssd_8x8_ssse3+0x10>
     5cc:	0f 12 c8             	movhlps xmm1,xmm0
     5cf:	66 0f fe c1          	paddd  xmm0,xmm1
     5d3:	f2 0f 70 c8 4e       	pshuflw xmm1,xmm0,0x4e
     5d8:	66 0f fe c1          	paddd  xmm0,xmm1
     5dc:	66 0f 7e c0          	movd   eax,xmm0
     5e0:	c3                   	ret    
     5e1:	0f 1f 80 00 00 00 00 	nop    DWORD PTR [rax+0x0]

00000000000005e8 <x264_8_pixel_ssd_16x8_ssse3>:
     5e8:	b0 04                	mov    al,0x4
     5ea:	e9 c3 fe ff ff       	jmp    4b2 <x264_8_pixel_ssd_16x16_ssse3+0x2>
     5ef:	90                   	nop

00000000000005f0 <x264_8_pixel_ssd_8x16_ssse3>:
     5f0:	b0 04                	mov    al,0x4
     5f2:	e9 4b ff ff ff       	jmp    542 <x264_8_pixel_ssd_8x8_ssse3+0x2>
     5f7:	90                   	nop

00000000000005f8 <x264_8_pixel_ssd_8x4_ssse3>:
     5f8:	b0 01                	mov    al,0x1
     5fa:	e9 43 ff ff ff       	jmp    542 <x264_8_pixel_ssd_8x8_ssse3+0x2>
     5ff:	90                   	nop

0000000000000600 <x264_8_pixel_ssd_16x16_avx>:
     600:	b0 08                	mov    al,0x8
     602:	c5 f9 6f 3d 00 00 00 	vmovdqa xmm7,XMMWORD PTR [rip+0x0]        # 60a <x264_8_pixel_ssd_16x16_avx+0xa>
     609:	00 
     60a:	c5 f9 ef c0          	vpxor  xmm0,xmm0,xmm0
     60e:	66 90                	xchg   ax,ax
     610:	c5 f9 6f 0f          	vmovdqa xmm1,XMMWORD PTR [rdi]
     614:	c5 f9 6f 12          	vmovdqa xmm2,XMMWORD PTR [rdx]
     618:	c5 f9 6f 1c 37       	vmovdqa xmm3,XMMWORD PTR [rdi+rsi*1]
     61d:	c5 f9 6f 24 0a       	vmovdqa xmm4,XMMWORD PTR [rdx+rcx*1]
     622:	48 8d 3c 77          	lea    rdi,[rdi+rsi*2]
     626:	48 8d 14 4a          	lea    rdx,[rdx+rcx*2]
     62a:	c5 f1 68 ea          	vpunpckhbw xmm5,xmm1,xmm2
     62e:	c5 e1 68 f4          	vpunpckhbw xmm6,xmm3,xmm4
     632:	c5 f1 60 ca          	vpunpcklbw xmm1,xmm1,xmm2
     636:	c5 e1 60 dc          	vpunpcklbw xmm3,xmm3,xmm4
     63a:	c4 e2 71 04 cf       	vpmaddubsw xmm1,xmm1,xmm7
     63f:	c4 e2 61 04 df       	vpmaddubsw xmm3,xmm3,xmm7
     644:	c4 e2 51 04 ef       	vpmaddubsw xmm5,xmm5,xmm7
     649:	c4 e2 49 04 f7       	vpmaddubsw xmm6,xmm6,xmm7
     64e:	c5 f1 f5 c9          	vpmaddwd xmm1,xmm1,xmm1
     652:	c5 e1 f5 db          	vpmaddwd xmm3,xmm3,xmm3
     656:	c5 d1 f5 ed          	vpmaddwd xmm5,xmm5,xmm5
     65a:	c5 c9 f5 f6          	vpmaddwd xmm6,xmm6,xmm6
     65e:	c5 f1 fe cb          	vpaddd xmm1,xmm1,xmm3
     662:	c5 d1 fe ee          	vpaddd xmm5,xmm5,xmm6
     666:	c5 f9 fe c1          	vpaddd xmm0,xmm0,xmm1
     66a:	c5 f9 fe c5          	vpaddd xmm0,xmm0,xmm5
     66e:	fe c8                	dec    al
     670:	7f 9e                	jg     610 <x264_8_pixel_ssd_16x16_avx+0x10>
     672:	c5 f9 6d c8          	vpunpckhqdq xmm1,xmm0,xmm0
     676:	c5 f9 fe c1          	vpaddd xmm0,xmm0,xmm1
     67a:	c5 fb 70 c8 4e       	vpshuflw xmm1,xmm0,0x4e
     67f:	c5 f9 fe c1          	vpaddd xmm0,xmm0,xmm1
     683:	c5 f9 7e c0          	vmovd  eax,xmm0
     687:	c3                   	ret    
     688:	0f 1f 84 00 00 00 00 	nop    DWORD PTR [rax+rax*1+0x0]
     68f:	00 

0000000000000690 <x264_8_pixel_ssd_8x8_avx>:
     690:	b0 02                	mov    al,0x2
     692:	c5 f9 6f 3d 00 00 00 	vmovdqa xmm7,XMMWORD PTR [rip+0x0]        # 69a <x264_8_pixel_ssd_8x8_avx+0xa>
     699:	00 
     69a:	c5 f9 ef c0          	vpxor  xmm0,xmm0,xmm0
     69e:	66 90                	xchg   ax,ax
     6a0:	c5 fa 7e 0f          	vmovq  xmm1,QWORD PTR [rdi]
     6a4:	c5 fa 7e 14 37       	vmovq  xmm2,QWORD PTR [rdi+rsi*1]
     6a9:	48 8d 3c 77          	lea    rdi,[rdi+rsi*2]
     6ad:	c5 fa 7e 1a          	vmovq  xmm3,QWORD PTR [rdx]
     6b1:	c5 fa 7e 24 0a       	vmovq  xmm4,QWORD PTR [rdx+rcx*1]
     6b6:	48 8d 14 4a          	lea    rdx,[rdx+rcx*2]
     6ba:	c5 f1 60 cb          	vpunpcklbw xmm1,xmm1,xmm3
     6be:	c5 e9 60 d4          	vpunpcklbw xmm2,xmm2,xmm4
     6c2:	c5 fa 7e 1f          	vmovq  xmm3,QWORD PTR [rdi]
     6c6:	c5 fa 7e 24 37       	vmovq  xmm4,QWORD PTR [rdi+rsi*1]
     6cb:	48 8d 3c 77          	lea    rdi,[rdi+rsi*2]
     6cf:	c5 fa 7e 2a          	vmovq  xmm5,QWORD PTR [rdx]
     6d3:	c5 fa 7e 34 0a       	vmovq  xmm6,QWORD PTR [rdx+rcx*1]
     6d8:	48 8d 14 4a          	lea    rdx,[rdx+rcx*2]
     6dc:	c5 e1 60 dd          	vpunpcklbw xmm3,xmm3,xmm5
     6e0:	c5 d9 60 e6          	vpunpcklbw xmm4,xmm4,xmm6
     6e4:	c4 e2 71 04 cf       	vpmaddubsw xmm1,xmm1,xmm7
     6e9:	c4 e2 69 04 d7       	vpmaddubsw xmm2,xmm2,xmm7
     6ee:	c4 e2 61 04 df       	vpmaddubsw xmm3,xmm3,xmm7
     6f3:	c4 e2 59 04 e7       	vpmaddubsw xmm4,xmm4,xmm7
     6f8:	c5 f1 f5 c9          	vpmaddwd xmm1,xmm1,xmm1
     6fc:	c5 e9 f5 d2          	vpmaddwd xmm2,xmm2,xmm2
     700:	c5 e1 f5 db          	vpmaddwd xmm3,xmm3,xmm3
     704:	c5 d9 f5 e4          	vpmaddwd xmm4,xmm4,xmm4
     708:	c5 f1 fe ca          	vpaddd xmm1,xmm1,xmm2
     70c:	c5 e1 fe dc          	vpaddd xmm3,xmm3,xmm4
     710:	c5 f9 fe c1          	vpaddd xmm0,xmm0,xmm1
     714:	c5 f9 fe c3          	vpaddd xmm0,xmm0,xmm3
     718:	fe c8                	dec    al
     71a:	7f 84                	jg     6a0 <x264_8_pixel_ssd_8x8_avx+0x10>
     71c:	c5 f9 6d c8          	vpunpckhqdq xmm1,xmm0,xmm0
     720:	c5 f9 fe c1          	vpaddd xmm0,xmm0,xmm1
     724:	c5 fb 70 c8 4e       	vpshuflw xmm1,xmm0,0x4e
     729:	c5 f9 fe c1          	vpaddd xmm0,xmm0,xmm1
     72d:	c5 f9 7e c0          	vmovd  eax,xmm0
     731:	c3                   	ret    
     732:	66 0f 1f 44 00 00    	nop    WORD PTR [rax+rax*1+0x0]

0000000000000738 <x264_8_pixel_ssd_16x8_avx>:
     738:	b0 04                	mov    al,0x4
     73a:	e9 c3 fe ff ff       	jmp    602 <x264_8_pixel_ssd_16x16_avx+0x2>
     73f:	90                   	nop

0000000000000740 <x264_8_pixel_ssd_8x16_avx>:
     740:	b0 04                	mov    al,0x4
     742:	e9 4b ff ff ff       	jmp    692 <x264_8_pixel_ssd_8x8_avx+0x2>
     747:	90                   	nop

0000000000000748 <x264_8_pixel_ssd_8x4_avx>:
     748:	b0 01                	mov    al,0x1
     74a:	e9 43 ff ff ff       	jmp    692 <x264_8_pixel_ssd_8x8_avx+0x2>
     74f:	90                   	nop

0000000000000750 <x264_8_pixel_ssd_4x4_ssse3>:
     750:	b0 01                	mov    al,0x1
     752:	0f 6f 3d 00 00 00 00 	movq   mm7,QWORD PTR [rip+0x0]        # 759 <x264_8_pixel_ssd_4x4_ssse3+0x9>
     759:	0f ef c0             	pxor   mm0,mm0
     75c:	0f 1f 40 00          	nop    DWORD PTR [rax+0x0]
     760:	0f 6e 0f             	movd   mm1,DWORD PTR [rdi]
     763:	0f 6e 14 37          	movd   mm2,DWORD PTR [rdi+rsi*1]
     767:	48 8d 3c 77          	lea    rdi,[rdi+rsi*2]
     76b:	0f 6e 1a             	movd   mm3,DWORD PTR [rdx]
     76e:	0f 6e 24 0a          	movd   mm4,DWORD PTR [rdx+rcx*1]
     772:	48 8d 14 4a          	lea    rdx,[rdx+rcx*2]
     776:	0f 60 cb             	punpcklbw mm1,mm3
     779:	0f 60 d4             	punpcklbw mm2,mm4
     77c:	0f 6e 1f             	movd   mm3,DWORD PTR [rdi]
     77f:	0f 6e 24 37          	movd   mm4,DWORD PTR [rdi+rsi*1]
     783:	48 8d 3c 77          	lea    rdi,[rdi+rsi*2]
     787:	0f 6e 2a             	movd   mm5,DWORD PTR [rdx]
     78a:	0f 6e 34 0a          	movd   mm6,DWORD PTR [rdx+rcx*1]
     78e:	48 8d 14 4a          	lea    rdx,[rdx+rcx*2]
     792:	0f 60 dd             	punpcklbw mm3,mm5
     795:	0f 60 e6             	punpcklbw mm4,mm6
     798:	0f 38 04 cf          	pmaddubsw mm1,mm7
     79c:	0f 38 04 d7          	pmaddubsw mm2,mm7
     7a0:	0f 38 04 df          	pmaddubsw mm3,mm7
     7a4:	0f 38 04 e7          	pmaddubsw mm4,mm7
     7a8:	0f f5 c9             	pmaddwd mm1,mm1
     7ab:	0f f5 d2             	pmaddwd mm2,mm2
     7ae:	0f f5 db             	pmaddwd mm3,mm3
     7b1:	0f f5 e4             	pmaddwd mm4,mm4
     7b4:	0f fe ca             	paddd  mm1,mm2
     7b7:	0f fe dc             	paddd  mm3,mm4
     7ba:	0f fe c1             	paddd  mm0,mm1
     7bd:	0f fe c3             	paddd  mm0,mm3
     7c0:	fe c8                	dec    al
     7c2:	7f 9c                	jg     760 <x264_8_pixel_ssd_4x4_ssse3+0x10>
     7c4:	0f 70 c8 4e          	pshufw mm1,mm0,0x4e
     7c8:	0f fe c1             	paddd  mm0,mm1
     7cb:	0f 7e c0             	movd   eax,mm0
     7ce:	c3                   	ret    
     7cf:	90                   	nop

00000000000007d0 <x264_8_pixel_ssd_4x8_ssse3>:
     7d0:	b0 02                	mov    al,0x2
     7d2:	e9 7b ff ff ff       	jmp    752 <x264_8_pixel_ssd_4x4_ssse3+0x2>
     7d7:	90                   	nop

00000000000007d8 <x264_8_pixel_ssd_4x16_ssse3>:
     7d8:	b0 04                	mov    al,0x4
     7da:	e9 73 ff ff ff       	jmp    752 <x264_8_pixel_ssd_4x4_ssse3+0x2>
     7df:	90                   	nop

00000000000007e0 <x264_8_pixel_ssd_16x16_xop>:
     7e0:	b0 08                	mov    al,0x8
     7e2:	c5 f9 6f 3d 00 00 00 	vmovdqa xmm7,XMMWORD PTR [rip+0x0]        # 7ea <x264_8_pixel_ssd_16x16_xop+0xa>
     7e9:	00 
     7ea:	c5 f9 ef c0          	vpxor  xmm0,xmm0,xmm0
     7ee:	66 90                	xchg   ax,ax
     7f0:	c5 f9 6f 0f          	vmovdqa xmm1,XMMWORD PTR [rdi]
     7f4:	c5 f9 6f 12          	vmovdqa xmm2,XMMWORD PTR [rdx]
     7f8:	c5 f9 6f 1c 37       	vmovdqa xmm3,XMMWORD PTR [rdi+rsi*1]
     7fd:	c5 f9 6f 24 0a       	vmovdqa xmm4,XMMWORD PTR [rdx+rcx*1]
     802:	48 8d 3c 77          	lea    rdi,[rdi+rsi*2]
     806:	48 8d 14 4a          	lea    rdx,[rdx+rcx*2]
     80a:	c5 f1 68 ea          	vpunpckhbw xmm5,xmm1,xmm2
     80e:	c5 e1 68 f4          	vpunpckhbw xmm6,xmm3,xmm4
     812:	c5 f1 60 ca          	vpunpcklbw xmm1,xmm1,xmm2
     816:	c5 e1 60 dc          	vpunpcklbw xmm3,xmm3,xmm4
     81a:	c4 e2 71 04 cf       	vpmaddubsw xmm1,xmm1,xmm7
     81f:	c4 e2 61 04 df       	vpmaddubsw xmm3,xmm3,xmm7
     824:	c4 e2 51 04 ef       	vpmaddubsw xmm5,xmm5,xmm7
     829:	c4 e2 49 04 f7       	vpmaddubsw xmm6,xmm6,xmm7
     82e:	c5 f1 f5 c9          	vpmaddwd xmm1,xmm1,xmm1
     832:	c5 e1 f5 db          	vpmaddwd xmm3,xmm3,xmm3
     836:	c5 d1 f5 ed          	vpmaddwd xmm5,xmm5,xmm5
     83a:	c5 c9 f5 f6          	vpmaddwd xmm6,xmm6,xmm6
     83e:	c5 f1 fe cb          	vpaddd xmm1,xmm1,xmm3
     842:	c5 d1 fe ee          	vpaddd xmm5,xmm5,xmm6
     846:	c5 f9 fe c1          	vpaddd xmm0,xmm0,xmm1
     84a:	c5 f9 fe c5          	vpaddd xmm0,xmm0,xmm5
     84e:	fe c8                	dec    al
     850:	7f 9e                	jg     7f0 <x264_8_pixel_ssd_16x16_xop+0x10>
     852:	c5 f9 6d c8          	vpunpckhqdq xmm1,xmm0,xmm0
     856:	c5 f9 fe c1          	vpaddd xmm0,xmm0,xmm1
     85a:	8f e9 78 cb c0       	vphadddq xmm0,xmm0
     85f:	c5 f9 7e c0          	vmovd  eax,xmm0
     863:	c3                   	ret    
     864:	0f 1f 84 00 00 00 00 	nop    DWORD PTR [rax+rax*1+0x0]
     86b:	00 
     86c:	0f 1f 40 00          	nop    DWORD PTR [rax+0x0]

0000000000000870 <x264_8_pixel_ssd_8x8_xop>:
     870:	b0 02                	mov    al,0x2
     872:	c5 f9 6f 3d 00 00 00 	vmovdqa xmm7,XMMWORD PTR [rip+0x0]        # 87a <x264_8_pixel_ssd_8x8_xop+0xa>
     879:	00 
     87a:	c5 f9 ef c0          	vpxor  xmm0,xmm0,xmm0
     87e:	66 90                	xchg   ax,ax
     880:	c5 fa 7e 0f          	vmovq  xmm1,QWORD PTR [rdi]
     884:	c5 fa 7e 14 37       	vmovq  xmm2,QWORD PTR [rdi+rsi*1]
     889:	48 8d 3c 77          	lea    rdi,[rdi+rsi*2]
     88d:	c5 fa 7e 1a          	vmovq  xmm3,QWORD PTR [rdx]
     891:	c5 fa 7e 24 0a       	vmovq  xmm4,QWORD PTR [rdx+rcx*1]
     896:	48 8d 14 4a          	lea    rdx,[rdx+rcx*2]
     89a:	c5 f1 60 cb          	vpunpcklbw xmm1,xmm1,xmm3
     89e:	c5 e9 60 d4          	vpunpcklbw xmm2,xmm2,xmm4
     8a2:	c5 fa 7e 1f          	vmovq  xmm3,QWORD PTR [rdi]
     8a6:	c5 fa 7e 24 37       	vmovq  xmm4,QWORD PTR [rdi+rsi*1]
     8ab:	48 8d 3c 77          	lea    rdi,[rdi+rsi*2]
     8af:	c5 fa 7e 2a          	vmovq  xmm5,QWORD PTR [rdx]
     8b3:	c5 fa 7e 34 0a       	vmovq  xmm6,QWORD PTR [rdx+rcx*1]
     8b8:	48 8d 14 4a          	lea    rdx,[rdx+rcx*2]
     8bc:	c5 e1 60 dd          	vpunpcklbw xmm3,xmm3,xmm5
     8c0:	c5 d9 60 e6          	vpunpcklbw xmm4,xmm4,xmm6
     8c4:	c4 e2 71 04 cf       	vpmaddubsw xmm1,xmm1,xmm7
     8c9:	c4 e2 69 04 d7       	vpmaddubsw xmm2,xmm2,xmm7
     8ce:	c4 e2 61 04 df       	vpmaddubsw xmm3,xmm3,xmm7
     8d3:	c4 e2 59 04 e7       	vpmaddubsw xmm4,xmm4,xmm7
     8d8:	c5 f1 f5 c9          	vpmaddwd xmm1,xmm1,xmm1
     8dc:	c5 e9 f5 d2          	vpmaddwd xmm2,xmm2,xmm2
     8e0:	c5 e1 f5 db          	vpmaddwd xmm3,xmm3,xmm3
     8e4:	c5 d9 f5 e4          	vpmaddwd xmm4,xmm4,xmm4
     8e8:	c5 f1 fe ca          	vpaddd xmm1,xmm1,xmm2
     8ec:	c5 e1 fe dc          	vpaddd xmm3,xmm3,xmm4
     8f0:	c5 f9 fe c1          	vpaddd xmm0,xmm0,xmm1
     8f4:	c5 f9 fe c3          	vpaddd xmm0,xmm0,xmm3
     8f8:	fe c8                	dec    al
     8fa:	7f 84                	jg     880 <x264_8_pixel_ssd_8x8_xop+0x10>
     8fc:	c5 f9 6d c8          	vpunpckhqdq xmm1,xmm0,xmm0
     900:	c5 f9 fe c1          	vpaddd xmm0,xmm0,xmm1
     904:	8f e9 78 cb c0       	vphadddq xmm0,xmm0
     909:	c5 f9 7e c0          	vmovd  eax,xmm0
     90d:	c3                   	ret    
     90e:	66 90                	xchg   ax,ax

0000000000000910 <x264_8_pixel_ssd_16x8_xop>:
     910:	b0 04                	mov    al,0x4
     912:	e9 cb fe ff ff       	jmp    7e2 <x264_8_pixel_ssd_16x16_xop+0x2>
     917:	90                   	nop

0000000000000918 <x264_8_pixel_ssd_8x16_xop>:
     918:	b0 04                	mov    al,0x4
     91a:	e9 53 ff ff ff       	jmp    872 <x264_8_pixel_ssd_8x8_xop+0x2>
     91f:	90                   	nop

0000000000000920 <x264_8_pixel_ssd_8x4_xop>:
     920:	b0 01                	mov    al,0x1
     922:	e9 4b ff ff ff       	jmp    872 <x264_8_pixel_ssd_8x8_xop+0x2>
     927:	0f 1f 84 00 00 00 00 	nop    DWORD PTR [rax+rax*1+0x0]
     92e:	00 
     92f:	90                   	nop

0000000000000930 <x264_8_pixel_ssd_16x16_avx2>:
     930:	b0 04                	mov    al,0x4
     932:	c5 fd 6f 3d 00 00 00 	vmovdqa ymm7,YMMWORD PTR [rip+0x0]        # 93a <x264_8_pixel_ssd_16x16_avx2+0xa>
     939:	00 
     93a:	c5 fd ef c0          	vpxor  ymm0,ymm0,ymm0
     93e:	66 90                	xchg   ax,ax
     940:	c5 f9 6f 0f          	vmovdqa xmm1,XMMWORD PTR [rdi]
     944:	c4 e3 75 38 0c 37 01 	vinserti128 ymm1,ymm1,XMMWORD PTR [rdi+rsi*1],0x1
     94b:	48 8d 3c 77          	lea    rdi,[rdi+rsi*2]
     94f:	c5 f9 6f 12          	vmovdqa xmm2,XMMWORD PTR [rdx]
     953:	c4 e3 6d 38 14 0a 01 	vinserti128 ymm2,ymm2,XMMWORD PTR [rdx+rcx*1],0x1
     95a:	48 8d 14 4a          	lea    rdx,[rdx+rcx*2]
     95e:	c5 f5 68 da          	vpunpckhbw ymm3,ymm1,ymm2
     962:	c5 f5 60 ca          	vpunpcklbw ymm1,ymm1,ymm2
     966:	c5 f9 6f 17          	vmovdqa xmm2,XMMWORD PTR [rdi]
     96a:	c4 e3 6d 38 14 37 01 	vinserti128 ymm2,ymm2,XMMWORD PTR [rdi+rsi*1],0x1
     971:	48 8d 3c 77          	lea    rdi,[rdi+rsi*2]
     975:	c5 f9 6f 22          	vmovdqa xmm4,XMMWORD PTR [rdx]
     979:	c4 e3 5d 38 24 0a 01 	vinserti128 ymm4,ymm4,XMMWORD PTR [rdx+rcx*1],0x1
     980:	48 8d 14 4a          	lea    rdx,[rdx+rcx*2]
     984:	c5 ed 68 ec          	vpunpckhbw ymm5,ymm2,ymm4
     988:	c5 ed 60 d4          	vpunpcklbw ymm2,ymm2,ymm4
     98c:	c4 e2 75 04 cf       	vpmaddubsw ymm1,ymm1,ymm7
     991:	c4 e2 65 04 df       	vpmaddubsw ymm3,ymm3,ymm7
     996:	c4 e2 6d 04 d7       	vpmaddubsw ymm2,ymm2,ymm7
     99b:	c4 e2 55 04 ef       	vpmaddubsw ymm5,ymm5,ymm7
     9a0:	c5 f5 f5 c9          	vpmaddwd ymm1,ymm1,ymm1
     9a4:	c5 e5 f5 db          	vpmaddwd ymm3,ymm3,ymm3
     9a8:	c5 ed f5 d2          	vpmaddwd ymm2,ymm2,ymm2
     9ac:	c5 d5 f5 ed          	vpmaddwd ymm5,ymm5,ymm5
     9b0:	c5 f5 fe cb          	vpaddd ymm1,ymm1,ymm3
     9b4:	c5 ed fe d5          	vpaddd ymm2,ymm2,ymm5
     9b8:	c5 fd fe c1          	vpaddd ymm0,ymm0,ymm1
     9bc:	c5 fd fe c2          	vpaddd ymm0,ymm0,ymm2
     9c0:	fe c8                	dec    al
     9c2:	0f 8f 78 ff ff ff    	jg     940 <x264_8_pixel_ssd_16x16_avx2+0x10>
     9c8:	c4 e3 7d 39 c1 01    	vextracti128 xmm1,ymm0,0x1
     9ce:	c5 f9 fe c1          	vpaddd xmm0,xmm0,xmm1
     9d2:	c5 f9 6d c8          	vpunpckhqdq xmm1,xmm0,xmm0
     9d6:	c5 f9 fe c1          	vpaddd xmm0,xmm0,xmm1
     9da:	c5 fb 70 c8 4e       	vpshuflw xmm1,xmm0,0x4e
     9df:	c5 f9 fe c1          	vpaddd xmm0,xmm0,xmm1
     9e3:	c5 f9 7e c0          	vmovd  eax,xmm0
     9e7:	c5 f8 77             	vzeroupper 
     9ea:	c3                   	ret    
     9eb:	0f 1f 44 00 00       	nop    DWORD PTR [rax+rax*1+0x0]

00000000000009f0 <x264_8_pixel_ssd_16x8_avx2>:
     9f0:	b0 02                	mov    al,0x2
     9f2:	e9 3b ff ff ff       	jmp    932 <x264_8_pixel_ssd_16x16_avx2+0x2>
     9f7:	0f 1f 84 00 00 00 00 	nop    DWORD PTR [rax+rax*1+0x0]
     9fe:	00 
     9ff:	90                   	nop

0000000000000a00 <x264_8_pixel_ssd_nv12_core_sse2>:
     a00:	45 01 c0             	add    r8d,r8d
     a03:	4c 01 c7             	add    rdi,r8
     a06:	4c 01 c2             	add    rdx,r8
     a09:	49 f7 d8             	neg    r8
     a0c:	66 0f ef db          	pxor   xmm3,xmm3
     a10:	66 0f ef e4          	pxor   xmm4,xmm4
     a14:	66 0f 6f 2d 00 00 00 	movdqa xmm5,XMMWORD PTR [rip+0x0]        # a1c <x264_8_pixel_ssd_nv12_core_sse2+0x1c>
     a1b:	00 
     a1c:	4c 89 c0             	mov    rax,r8
     a1f:	66 0f 6f 14 07       	movdqa xmm2,XMMWORD PTR [rdi+rax*1]
     a24:	66 0f 6f 0c 02       	movdqa xmm1,XMMWORD PTR [rdx+rax*1]
     a29:	66 0f 6f c2          	movdqa xmm0,xmm2
     a2d:	66 0f d8 c1          	psubusb xmm0,xmm1
     a31:	66 0f d8 ca          	psubusb xmm1,xmm2
     a35:	66 0f eb c1          	por    xmm0,xmm1
     a39:	66 0f 6f d0          	movdqa xmm2,xmm0
     a3d:	66 0f 71 d2 08       	psrlw  xmm2,0x8
     a42:	66 0f db c5          	pand   xmm0,xmm5
     a46:	66 0f f5 d2          	pmaddwd xmm2,xmm2
     a4a:	66 0f f5 c0          	pmaddwd xmm0,xmm0
     a4e:	66 0f fe e2          	paddd  xmm4,xmm2
     a52:	66 0f fe d8          	paddd  xmm3,xmm0
     a56:	48 83 c0 10          	add    rax,0x10
     a5a:	7c c3                	jl     a1f <x264_8_pixel_ssd_nv12_core_sse2+0x1f>
     a5c:	48 01 f7             	add    rdi,rsi
     a5f:	48 01 ca             	add    rdx,rcx
     a62:	41 ff c9             	dec    r9d
     a65:	7f b5                	jg     a1c <x264_8_pixel_ssd_nv12_core_sse2+0x1c>
     a67:	48 8b 7c 24 08       	mov    rdi,QWORD PTR [rsp+0x8]
     a6c:	48 8b 74 24 10       	mov    rsi,QWORD PTR [rsp+0x10]
     a71:	66 0f 6f c3          	movdqa xmm0,xmm3
     a75:	66 0f 6c dc          	punpcklqdq xmm3,xmm4
     a79:	66 0f 6d c4          	punpckhqdq xmm0,xmm4
     a7d:	66 0f fe d8          	paddd  xmm3,xmm0
     a81:	66 0f 6f c3          	movdqa xmm0,xmm3
     a85:	66 0f 73 f0 20       	psllq  xmm0,0x20
     a8a:	66 0f fe d8          	paddd  xmm3,xmm0
     a8e:	66 0f 73 d3 20       	psrlq  xmm3,0x20
     a93:	66 0f d6 1f          	movq   QWORD PTR [rdi],xmm3
     a97:	0f 17 1e             	movhps QWORD PTR [rsi],xmm3
     a9a:	c3                   	ret    
     a9b:	0f 1f 44 00 00       	nop    DWORD PTR [rax+rax*1+0x0]

0000000000000aa0 <x264_8_pixel_ssd_nv12_core_avx>:
     aa0:	45 01 c0             	add    r8d,r8d
     aa3:	4c 01 c7             	add    rdi,r8
     aa6:	4c 01 c2             	add    rdx,r8
     aa9:	49 f7 d8             	neg    r8
     aac:	c5 e1 ef db          	vpxor  xmm3,xmm3,xmm3
     ab0:	c5 d9 ef e4          	vpxor  xmm4,xmm4,xmm4
     ab4:	c5 f9 6f 2d 00 00 00 	vmovdqa xmm5,XMMWORD PTR [rip+0x0]        # abc <x264_8_pixel_ssd_nv12_core_avx+0x1c>
     abb:	00 
     abc:	4c 89 c0             	mov    rax,r8
     abf:	c5 f9 6f 14 07       	vmovdqa xmm2,XMMWORD PTR [rdi+rax*1]
     ac4:	c5 f9 6f 0c 02       	vmovdqa xmm1,XMMWORD PTR [rdx+rax*1]
     ac9:	c5 e9 d8 c1          	vpsubusb xmm0,xmm2,xmm1
     acd:	c5 f1 d8 ca          	vpsubusb xmm1,xmm1,xmm2
     ad1:	c5 f9 eb c1          	vpor   xmm0,xmm0,xmm1
     ad5:	c5 e9 71 d0 08       	vpsrlw xmm2,xmm0,0x8
     ada:	c5 f9 db c5          	vpand  xmm0,xmm0,xmm5
     ade:	c5 e9 f5 d2          	vpmaddwd xmm2,xmm2,xmm2
     ae2:	c5 f9 f5 c0          	vpmaddwd xmm0,xmm0,xmm0
     ae6:	c5 d9 fe e2          	vpaddd xmm4,xmm4,xmm2
     aea:	c5 e1 fe d8          	vpaddd xmm3,xmm3,xmm0
     aee:	48 83 c0 10          	add    rax,0x10
     af2:	7c cb                	jl     abf <x264_8_pixel_ssd_nv12_core_avx+0x1f>
     af4:	48 01 f7             	add    rdi,rsi
     af7:	48 01 ca             	add    rdx,rcx
     afa:	41 ff c9             	dec    r9d
     afd:	7f bd                	jg     abc <x264_8_pixel_ssd_nv12_core_avx+0x1c>
     aff:	48 8b 7c 24 08       	mov    rdi,QWORD PTR [rsp+0x8]
     b04:	48 8b 74 24 10       	mov    rsi,QWORD PTR [rsp+0x10]
     b09:	c4 e2 61 02 dc       	vphaddd xmm3,xmm3,xmm4
     b0e:	c5 d9 73 f3 20       	vpsllq xmm4,xmm3,0x20
     b13:	c5 e1 fe dc          	vpaddd xmm3,xmm3,xmm4
     b17:	c5 e1 73 d3 20       	vpsrlq xmm3,xmm3,0x20
     b1c:	c5 f9 d6 1f          	vmovq  QWORD PTR [rdi],xmm3
     b20:	c5 f8 17 1e          	vmovhps QWORD PTR [rsi],xmm3
     b24:	c3                   	ret    
     b25:	0f 1f 84 00 00 00 00 	nop    DWORD PTR [rax+rax*1+0x0]
     b2c:	00 
     b2d:	0f 1f 00             	nop    DWORD PTR [rax]

0000000000000b30 <x264_8_pixel_ssd_nv12_core_xop>:
     b30:	45 01 c0             	add    r8d,r8d
     b33:	4c 01 c7             	add    rdi,r8
     b36:	4c 01 c2             	add    rdx,r8
     b39:	49 f7 d8             	neg    r8
     b3c:	c5 e1 ef db          	vpxor  xmm3,xmm3,xmm3
     b40:	c5 d9 ef e4          	vpxor  xmm4,xmm4,xmm4
     b44:	c5 f9 6f 2d 00 00 00 	vmovdqa xmm5,XMMWORD PTR [rip+0x0]        # b4c <x264_8_pixel_ssd_nv12_core_xop+0x1c>
     b4b:	00 
     b4c:	4c 89 c0             	mov    rax,r8
     b4f:	c5 f9 6f 14 07       	vmovdqa xmm2,XMMWORD PTR [rdi+rax*1]
     b54:	c5 f9 6f 0c 02       	vmovdqa xmm1,XMMWORD PTR [rdx+rax*1]
     b59:	c5 e9 d8 c1          	vpsubusb xmm0,xmm2,xmm1
     b5d:	c5 f1 d8 ca          	vpsubusb xmm1,xmm1,xmm2
     b61:	c5 f9 eb c1          	vpor   xmm0,xmm0,xmm1
     b65:	c5 e9 71 d0 08       	vpsrlw xmm2,xmm0,0x8
     b6a:	c5 f9 db c5          	vpand  xmm0,xmm0,xmm5
     b6e:	8f e8 68 b6 e2 40    	vpmadcswd xmm4,xmm2,xmm2,xmm4
     b74:	8f e8 78 b6 d8 30    	vpmadcswd xmm3,xmm0,xmm0,xmm3
     b7a:	48 83 c0 10          	add    rax,0x10
     b7e:	7c cf                	jl     b4f <x264_8_pixel_ssd_nv12_core_xop+0x1f>
     b80:	48 01 f7             	add    rdi,rsi
     b83:	48 01 ca             	add    rdx,rcx
     b86:	41 ff c9             	dec    r9d
     b89:	7f c1                	jg     b4c <x264_8_pixel_ssd_nv12_core_xop+0x1c>
     b8b:	48 8b 7c 24 08       	mov    rdi,QWORD PTR [rsp+0x8]
     b90:	48 8b 74 24 10       	mov    rsi,QWORD PTR [rsp+0x10]
     b95:	c4 e2 61 02 dc       	vphaddd xmm3,xmm3,xmm4
     b9a:	c5 d9 73 f3 20       	vpsllq xmm4,xmm3,0x20
     b9f:	c5 e1 fe dc          	vpaddd xmm3,xmm3,xmm4
     ba3:	c5 e1 73 d3 20       	vpsrlq xmm3,xmm3,0x20
     ba8:	c5 f9 d6 1f          	vmovq  QWORD PTR [rdi],xmm3
     bac:	c5 f8 17 1e          	vmovhps QWORD PTR [rsi],xmm3
     bb0:	c3                   	ret    
     bb1:	0f 1f 84 00 00 00 00 	nop    DWORD PTR [rax+rax*1+0x0]
     bb8:	00 
     bb9:	0f 1f 80 00 00 00 00 	nop    DWORD PTR [rax+0x0]

0000000000000bc0 <x264_8_pixel_ssd_nv12_core_avx2>:
     bc0:	45 01 c0             	add    r8d,r8d
     bc3:	4c 01 c7             	add    rdi,r8
     bc6:	4c 01 c2             	add    rdx,r8
     bc9:	49 f7 d8             	neg    r8
     bcc:	c5 e5 ef db          	vpxor  ymm3,ymm3,ymm3
     bd0:	c5 dd ef e4          	vpxor  ymm4,ymm4,ymm4
     bd4:	c5 fd 6f 2d 00 00 00 	vmovdqa ymm5,YMMWORD PTR [rip+0x0]        # bdc <x264_8_pixel_ssd_nv12_core_avx2+0x1c>
     bdb:	00 
     bdc:	4c 89 c0             	mov    rax,r8
     bdf:	c5 fe 6f 14 07       	vmovdqu ymm2,YMMWORD PTR [rdi+rax*1]
     be4:	c5 fe 6f 0c 02       	vmovdqu ymm1,YMMWORD PTR [rdx+rax*1]
     be9:	c5 ed d8 c1          	vpsubusb ymm0,ymm2,ymm1
     bed:	c5 f5 d8 ca          	vpsubusb ymm1,ymm1,ymm2
     bf1:	c5 fd eb c1          	vpor   ymm0,ymm0,ymm1
     bf5:	c5 ed 71 d0 08       	vpsrlw ymm2,ymm0,0x8
     bfa:	c5 fd db c5          	vpand  ymm0,ymm0,ymm5
     bfe:	c5 ed f5 d2          	vpmaddwd ymm2,ymm2,ymm2
     c02:	c5 fd f5 c0          	vpmaddwd ymm0,ymm0,ymm0
     c06:	c5 dd fe e2          	vpaddd ymm4,ymm4,ymm2
     c0a:	c5 e5 fe d8          	vpaddd ymm3,ymm3,ymm0
     c0e:	48 83 c0 20          	add    rax,0x20
     c12:	7c cb                	jl     bdf <x264_8_pixel_ssd_nv12_core_avx2+0x1f>
     c14:	74 14                	je     c2a <x264_8_pixel_ssd_nv12_core_avx2+0x6a>
     c16:	c5 f1 74 c9          	vpcmpeqb xmm1,xmm1,xmm1
     c1a:	c5 f5 df c0          	vpandn ymm0,ymm1,ymm0
     c1e:	c5 f5 df d2          	vpandn ymm2,ymm1,ymm2
     c22:	c5 e5 fa d8          	vpsubd ymm3,ymm3,ymm0
     c26:	c5 dd fa e2          	vpsubd ymm4,ymm4,ymm2
     c2a:	48 01 f7             	add    rdi,rsi
     c2d:	48 01 ca             	add    rdx,rcx
     c30:	41 ff c9             	dec    r9d
     c33:	7f a7                	jg     bdc <x264_8_pixel_ssd_nv12_core_avx2+0x1c>
     c35:	48 8b 7c 24 08       	mov    rdi,QWORD PTR [rsp+0x8]
     c3a:	48 8b 74 24 10       	mov    rsi,QWORD PTR [rsp+0x10]
     c3f:	c4 e2 65 02 dc       	vphaddd ymm3,ymm3,ymm4
     c44:	c4 e3 7d 39 dc 01    	vextracti128 xmm4,ymm3,0x1
     c4a:	c5 e1 fe dc          	vpaddd xmm3,xmm3,xmm4
     c4e:	c5 d9 73 f3 20       	vpsllq xmm4,xmm3,0x20
     c53:	c5 e1 fe dc          	vpaddd xmm3,xmm3,xmm4
     c57:	c5 e1 73 d3 20       	vpsrlq xmm3,xmm3,0x20
     c5c:	c5 f9 d6 1f          	vmovq  QWORD PTR [rdi],xmm3
     c60:	c5 f8 17 1e          	vmovhps QWORD PTR [rsi],xmm3
     c64:	c5 f8 77             	vzeroupper 
     c67:	c3                   	ret    
     c68:	0f 1f 84 00 00 00 00 	nop    DWORD PTR [rax+rax*1+0x0]
     c6f:	00 

0000000000000c70 <x264_8_pixel_var_16x16_sse2>:
     c70:	66 0f ef ed          	pxor   xmm5,xmm5
     c74:	66 0f ef f6          	pxor   xmm6,xmm6
     c78:	66 0f 6f 3d 00 00 00 	movdqa xmm7,XMMWORD PTR [rip+0x0]        # c80 <x264_8_pixel_var_16x16_sse2+0x10>
     c7f:	00 
     c80:	ba 08 00 00 00       	mov    edx,0x8
     c85:	66 0f 6f 07          	movdqa xmm0,XMMWORD PTR [rdi]
     c89:	66 0f 6f 1c 37       	movdqa xmm3,XMMWORD PTR [rdi+rsi*1]
     c8e:	66 0f 6f e7          	movdqa xmm4,xmm7
     c92:	66 0f db e3          	pand   xmm4,xmm3
     c96:	66 0f 6f cf          	movdqa xmm1,xmm7
     c9a:	66 0f db c8          	pand   xmm1,xmm0
     c9e:	66 0f 71 d0 08       	psrlw  xmm0,0x8
     ca3:	66 0f 71 d3 08       	psrlw  xmm3,0x8
     ca8:	48 8d 3c 77          	lea    rdi,[rdi+rsi*2]
     cac:	66 0f fd e8          	paddw  xmm5,xmm0
     cb0:	66 0f fd eb          	paddw  xmm5,xmm3
     cb4:	66 0f fd e9          	paddw  xmm5,xmm1
     cb8:	66 0f fd ec          	paddw  xmm5,xmm4
     cbc:	66 0f f5 c0          	pmaddwd xmm0,xmm0
     cc0:	66 0f f5 db          	pmaddwd xmm3,xmm3
     cc4:	66 0f f5 c9          	pmaddwd xmm1,xmm1
     cc8:	66 0f f5 e4          	pmaddwd xmm4,xmm4
     ccc:	66 0f fe f0          	paddd  xmm6,xmm0
     cd0:	66 0f fe f3          	paddd  xmm6,xmm3
     cd4:	66 0f fe f1          	paddd  xmm6,xmm1
     cd8:	66 0f fe f4          	paddd  xmm6,xmm4
     cdc:	ff ca                	dec    edx
     cde:	7f a5                	jg     c85 <x264_8_pixel_var_16x16_sse2+0x15>
     ce0:	66 0f f5 2d 00 00 00 	pmaddwd xmm5,XMMWORD PTR [rip+0x0]        # ce8 <x264_8_pixel_var_16x16_sse2+0x78>
     ce7:	00 
     ce8:	66 0f 6f c5          	movdqa xmm0,xmm5
     cec:	66 0f 62 ee          	punpckldq xmm5,xmm6
     cf0:	66 0f 6a c6          	punpckhdq xmm0,xmm6
     cf4:	66 0f fe e8          	paddd  xmm5,xmm0
     cf8:	0f 12 c5             	movhlps xmm0,xmm5
     cfb:	66 0f fe e8          	paddd  xmm5,xmm0
     cff:	66 48 0f 7e e8       	movq   rax,xmm5
     d04:	c3                   	ret    
     d05:	0f 1f 84 00 00 00 00 	nop    DWORD PTR [rax+rax*1+0x0]
     d0c:	00 
     d0d:	0f 1f 00             	nop    DWORD PTR [rax]

0000000000000d10 <x264_8_pixel_var_8x8_sse2>:
     d10:	66 0f ef ed          	pxor   xmm5,xmm5
     d14:	66 0f ef f6          	pxor   xmm6,xmm6
     d18:	66 0f 6f 3d 00 00 00 	movdqa xmm7,XMMWORD PTR [rip+0x0]        # d20 <x264_8_pixel_var_8x8_sse2+0x10>
     d1f:	00 
     d20:	ba 02 00 00 00       	mov    edx,0x2
     d25:	48 8d 0c 76          	lea    rcx,[rsi+rsi*2]
     d29:	f3 0f 7e 07          	movq   xmm0,QWORD PTR [rdi]
     d2d:	f3 0f 7e 1c 37       	movq   xmm3,QWORD PTR [rdi+rsi*1]
     d32:	0f 16 04 77          	movhps xmm0,QWORD PTR [rdi+rsi*2]
     d36:	0f 16 1c 0f          	movhps xmm3,QWORD PTR [rdi+rcx*1]
     d3a:	66 0f 6f e7          	movdqa xmm4,xmm7
     d3e:	66 0f db e3          	pand   xmm4,xmm3
     d42:	66 0f 6f cf          	movdqa xmm1,xmm7
     d46:	66 0f db c8          	pand   xmm1,xmm0
     d4a:	66 0f 71 d0 08       	psrlw  xmm0,0x8
     d4f:	66 0f 71 d3 08       	psrlw  xmm3,0x8
     d54:	48 8d 3c b7          	lea    rdi,[rdi+rsi*4]
     d58:	66 0f fd e8          	paddw  xmm5,xmm0
     d5c:	66 0f fd eb          	paddw  xmm5,xmm3
     d60:	66 0f fd e9          	paddw  xmm5,xmm1
     d64:	66 0f fd ec          	paddw  xmm5,xmm4
     d68:	66 0f f5 c0          	pmaddwd xmm0,xmm0
     d6c:	66 0f f5 db          	pmaddwd xmm3,xmm3
     d70:	66 0f f5 c9          	pmaddwd xmm1,xmm1
     d74:	66 0f f5 e4          	pmaddwd xmm4,xmm4
     d78:	66 0f fe f0          	paddd  xmm6,xmm0
     d7c:	66 0f fe f3          	paddd  xmm6,xmm3
     d80:	66 0f fe f1          	paddd  xmm6,xmm1
     d84:	66 0f fe f4          	paddd  xmm6,xmm4
     d88:	ff ca                	dec    edx
     d8a:	7f 9d                	jg     d29 <x264_8_pixel_var_8x8_sse2+0x19>
     d8c:	66 0f f5 2d 00 00 00 	pmaddwd xmm5,XMMWORD PTR [rip+0x0]        # d94 <x264_8_pixel_var_8x8_sse2+0x84>
     d93:	00 
     d94:	66 0f 6f c5          	movdqa xmm0,xmm5
     d98:	66 0f 62 ee          	punpckldq xmm5,xmm6
     d9c:	66 0f 6a c6          	punpckhdq xmm0,xmm6
     da0:	66 0f fe e8          	paddd  xmm5,xmm0
     da4:	0f 12 c5             	movhlps xmm0,xmm5
     da7:	66 0f fe e8          	paddd  xmm5,xmm0
     dab:	66 48 0f 7e e8       	movq   rax,xmm5
     db0:	c3                   	ret    
     db1:	0f 1f 84 00 00 00 00 	nop    DWORD PTR [rax+rax*1+0x0]
     db8:	00 
     db9:	0f 1f 80 00 00 00 00 	nop    DWORD PTR [rax+0x0]

0000000000000dc0 <x264_8_pixel_var_8x16_sse2>:
     dc0:	66 0f ef ed          	pxor   xmm5,xmm5
     dc4:	66 0f ef f6          	pxor   xmm6,xmm6
     dc8:	66 0f 6f 3d 00 00 00 	movdqa xmm7,XMMWORD PTR [rip+0x0]        # dd0 <x264_8_pixel_var_8x16_sse2+0x10>
     dcf:	00 
     dd0:	ba 04 00 00 00       	mov    edx,0x4
     dd5:	48 8d 0c 76          	lea    rcx,[rsi+rsi*2]
     dd9:	f3 0f 7e 07          	movq   xmm0,QWORD PTR [rdi]
     ddd:	f3 0f 7e 1c 37       	movq   xmm3,QWORD PTR [rdi+rsi*1]
     de2:	0f 16 04 77          	movhps xmm0,QWORD PTR [rdi+rsi*2]
     de6:	0f 16 1c 0f          	movhps xmm3,QWORD PTR [rdi+rcx*1]
     dea:	66 0f 6f e7          	movdqa xmm4,xmm7
     dee:	66 0f db e3          	pand   xmm4,xmm3
     df2:	66 0f 6f cf          	movdqa xmm1,xmm7
     df6:	66 0f db c8          	pand   xmm1,xmm0
     dfa:	66 0f 71 d0 08       	psrlw  xmm0,0x8
     dff:	66 0f 71 d3 08       	psrlw  xmm3,0x8
     e04:	48 8d 3c b7          	lea    rdi,[rdi+rsi*4]
     e08:	66 0f fd e8          	paddw  xmm5,xmm0
     e0c:	66 0f fd eb          	paddw  xmm5,xmm3
     e10:	66 0f fd e9          	paddw  xmm5,xmm1
     e14:	66 0f fd ec          	paddw  xmm5,xmm4
     e18:	66 0f f5 c0          	pmaddwd xmm0,xmm0
     e1c:	66 0f f5 db          	pmaddwd xmm3,xmm3
     e20:	66 0f f5 c9          	pmaddwd xmm1,xmm1
     e24:	66 0f f5 e4          	pmaddwd xmm4,xmm4
     e28:	66 0f fe f0          	paddd  xmm6,xmm0
     e2c:	66 0f fe f3          	paddd  xmm6,xmm3
     e30:	66 0f fe f1          	paddd  xmm6,xmm1
     e34:	66 0f fe f4          	paddd  xmm6,xmm4
     e38:	ff ca                	dec    edx
     e3a:	7f 9d                	jg     dd9 <x264_8_pixel_var_8x16_sse2+0x19>
     e3c:	66 0f f5 2d 00 00 00 	pmaddwd xmm5,XMMWORD PTR [rip+0x0]        # e44 <x264_8_pixel_var_8x16_sse2+0x84>
     e43:	00 
     e44:	66 0f 6f c5          	movdqa xmm0,xmm5
     e48:	66 0f 62 ee          	punpckldq xmm5,xmm6
     e4c:	66 0f 6a c6          	punpckhdq xmm0,xmm6
     e50:	66 0f fe e8          	paddd  xmm5,xmm0
     e54:	0f 12 c5             	movhlps xmm0,xmm5
     e57:	66 0f fe e8          	paddd  xmm5,xmm0
     e5b:	66 48 0f 7e e8       	movq   rax,xmm5
     e60:	c3                   	ret    
     e61:	0f 1f 84 00 00 00 00 	nop    DWORD PTR [rax+rax*1+0x0]
     e68:	00 
     e69:	0f 1f 80 00 00 00 00 	nop    DWORD PTR [rax+0x0]

0000000000000e70 <x264_8_pixel_var_16x16_avx>:
     e70:	c5 d1 ef ed          	vpxor  xmm5,xmm5,xmm5
     e74:	c5 c9 ef f6          	vpxor  xmm6,xmm6,xmm6
     e78:	c5 f9 6f 3d 00 00 00 	vmovdqa xmm7,XMMWORD PTR [rip+0x0]        # e80 <x264_8_pixel_var_16x16_avx+0x10>
     e7f:	00 
     e80:	ba 08 00 00 00       	mov    edx,0x8
     e85:	c5 f9 6f 07          	vmovdqa xmm0,XMMWORD PTR [rdi]
     e89:	c5 f9 6f 1c 37       	vmovdqa xmm3,XMMWORD PTR [rdi+rsi*1]
     e8e:	c5 c1 db e3          	vpand  xmm4,xmm7,xmm3
     e92:	c5 c1 db c8          	vpand  xmm1,xmm7,xmm0
     e96:	c5 f9 71 d0 08       	vpsrlw xmm0,xmm0,0x8
     e9b:	c5 e1 71 d3 08       	vpsrlw xmm3,xmm3,0x8
     ea0:	48 8d 3c 77          	lea    rdi,[rdi+rsi*2]
     ea4:	c5 d1 fd e8          	vpaddw xmm5,xmm5,xmm0
     ea8:	c5 d1 fd eb          	vpaddw xmm5,xmm5,xmm3
     eac:	c5 d1 fd e9          	vpaddw xmm5,xmm5,xmm1
     eb0:	c5 d1 fd ec          	vpaddw xmm5,xmm5,xmm4
     eb4:	c5 f9 f5 c0          	vpmaddwd xmm0,xmm0,xmm0
     eb8:	c5 e1 f5 db          	vpmaddwd xmm3,xmm3,xmm3
     ebc:	c5 f1 f5 c9          	vpmaddwd xmm1,xmm1,xmm1
     ec0:	c5 d9 f5 e4          	vpmaddwd xmm4,xmm4,xmm4
     ec4:	c5 c9 fe f0          	vpaddd xmm6,xmm6,xmm0
     ec8:	c5 c9 fe f3          	vpaddd xmm6,xmm6,xmm3
     ecc:	c5 c9 fe f1          	vpaddd xmm6,xmm6,xmm1
     ed0:	c5 c9 fe f4          	vpaddd xmm6,xmm6,xmm4
     ed4:	ff ca                	dec    edx
     ed6:	7f ad                	jg     e85 <x264_8_pixel_var_16x16_avx+0x15>
     ed8:	c5 d1 f5 2d 00 00 00 	vpmaddwd xmm5,xmm5,XMMWORD PTR [rip+0x0]        # ee0 <x264_8_pixel_var_16x16_avx+0x70>
     edf:	00 
     ee0:	c5 d1 6a c6          	vpunpckhdq xmm0,xmm5,xmm6
     ee4:	c5 d1 62 ee          	vpunpckldq xmm5,xmm5,xmm6
     ee8:	c5 d1 fe e8          	vpaddd xmm5,xmm5,xmm0
     eec:	c5 d1 6d c5          	vpunpckhqdq xmm0,xmm5,xmm5
     ef0:	c5 d1 fe e8          	vpaddd xmm5,xmm5,xmm0
     ef4:	c4 e1 f9 7e e8       	vmovq  rax,xmm5
     ef9:	c3                   	ret    
     efa:	66 0f 1f 44 00 00    	nop    WORD PTR [rax+rax*1+0x0]

0000000000000f00 <x264_8_pixel_var_8x8_avx>:
     f00:	c5 d1 ef ed          	vpxor  xmm5,xmm5,xmm5
     f04:	c5 c9 ef f6          	vpxor  xmm6,xmm6,xmm6
     f08:	c5 f9 6f 3d 00 00 00 	vmovdqa xmm7,XMMWORD PTR [rip+0x0]        # f10 <x264_8_pixel_var_8x8_avx+0x10>
     f0f:	00 
     f10:	ba 02 00 00 00       	mov    edx,0x2
     f15:	48 8d 0c 76          	lea    rcx,[rsi+rsi*2]
     f19:	c5 fa 7e 07          	vmovq  xmm0,QWORD PTR [rdi]
     f1d:	c5 fa 7e 1c 37       	vmovq  xmm3,QWORD PTR [rdi+rsi*1]
     f22:	c5 f8 16 04 77       	vmovhps xmm0,xmm0,QWORD PTR [rdi+rsi*2]
     f27:	c5 e0 16 1c 0f       	vmovhps xmm3,xmm3,QWORD PTR [rdi+rcx*1]
     f2c:	c5 c1 db e3          	vpand  xmm4,xmm7,xmm3
     f30:	c5 c1 db c8          	vpand  xmm1,xmm7,xmm0
     f34:	c5 f9 71 d0 08       	vpsrlw xmm0,xmm0,0x8
     f39:	c5 e1 71 d3 08       	vpsrlw xmm3,xmm3,0x8
     f3e:	48 8d 3c b7          	lea    rdi,[rdi+rsi*4]
     f42:	c5 d1 fd e8          	vpaddw xmm5,xmm5,xmm0
     f46:	c5 d1 fd eb          	vpaddw xmm5,xmm5,xmm3
     f4a:	c5 d1 fd e9          	vpaddw xmm5,xmm5,xmm1
     f4e:	c5 d1 fd ec          	vpaddw xmm5,xmm5,xmm4
     f52:	c5 f9 f5 c0          	vpmaddwd xmm0,xmm0,xmm0
     f56:	c5 e1 f5 db          	vpmaddwd xmm3,xmm3,xmm3
     f5a:	c5 f1 f5 c9          	vpmaddwd xmm1,xmm1,xmm1
     f5e:	c5 d9 f5 e4          	vpmaddwd xmm4,xmm4,xmm4
     f62:	c5 c9 fe f0          	vpaddd xmm6,xmm6,xmm0
     f66:	c5 c9 fe f3          	vpaddd xmm6,xmm6,xmm3
     f6a:	c5 c9 fe f1          	vpaddd xmm6,xmm6,xmm1
     f6e:	c5 c9 fe f4          	vpaddd xmm6,xmm6,xmm4
     f72:	ff ca                	dec    edx
     f74:	7f a3                	jg     f19 <x264_8_pixel_var_8x8_avx+0x19>
     f76:	c5 d1 f5 2d 00 00 00 	vpmaddwd xmm5,xmm5,XMMWORD PTR [rip+0x0]        # f7e <x264_8_pixel_var_8x8_avx+0x7e>
     f7d:	00 
     f7e:	c5 d1 6a c6          	vpunpckhdq xmm0,xmm5,xmm6
     f82:	c5 d1 62 ee          	vpunpckldq xmm5,xmm5,xmm6
     f86:	c5 d1 fe e8          	vpaddd xmm5,xmm5,xmm0
     f8a:	c5 d1 6d c5          	vpunpckhqdq xmm0,xmm5,xmm5
     f8e:	c5 d1 fe e8          	vpaddd xmm5,xmm5,xmm0
     f92:	c4 e1 f9 7e e8       	vmovq  rax,xmm5
     f97:	c3                   	ret    
     f98:	0f 1f 84 00 00 00 00 	nop    DWORD PTR [rax+rax*1+0x0]
     f9f:	00 

0000000000000fa0 <x264_8_pixel_var_8x16_avx>:
     fa0:	c5 d1 ef ed          	vpxor  xmm5,xmm5,xmm5
     fa4:	c5 c9 ef f6          	vpxor  xmm6,xmm6,xmm6
     fa8:	c5 f9 6f 3d 00 00 00 	vmovdqa xmm7,XMMWORD PTR [rip+0x0]        # fb0 <x264_8_pixel_var_8x16_avx+0x10>
     faf:	00 
     fb0:	ba 04 00 00 00       	mov    edx,0x4
     fb5:	48 8d 0c 76          	lea    rcx,[rsi+rsi*2]
     fb9:	c5 fa 7e 07          	vmovq  xmm0,QWORD PTR [rdi]
     fbd:	c5 fa 7e 1c 37       	vmovq  xmm3,QWORD PTR [rdi+rsi*1]
     fc2:	c5 f8 16 04 77       	vmovhps xmm0,xmm0,QWORD PTR [rdi+rsi*2]
     fc7:	c5 e0 16 1c 0f       	vmovhps xmm3,xmm3,QWORD PTR [rdi+rcx*1]
     fcc:	c5 c1 db e3          	vpand  xmm4,xmm7,xmm3
     fd0:	c5 c1 db c8          	vpand  xmm1,xmm7,xmm0
     fd4:	c5 f9 71 d0 08       	vpsrlw xmm0,xmm0,0x8
     fd9:	c5 e1 71 d3 08       	vpsrlw xmm3,xmm3,0x8
     fde:	48 8d 3c b7          	lea    rdi,[rdi+rsi*4]
     fe2:	c5 d1 fd e8          	vpaddw xmm5,xmm5,xmm0
     fe6:	c5 d1 fd eb          	vpaddw xmm5,xmm5,xmm3
     fea:	c5 d1 fd e9          	vpaddw xmm5,xmm5,xmm1
     fee:	c5 d1 fd ec          	vpaddw xmm5,xmm5,xmm4
     ff2:	c5 f9 f5 c0          	vpmaddwd xmm0,xmm0,xmm0
     ff6:	c5 e1 f5 db          	vpmaddwd xmm3,xmm3,xmm3
     ffa:	c5 f1 f5 c9          	vpmaddwd xmm1,xmm1,xmm1
     ffe:	c5 d9 f5 e4          	vpmaddwd xmm4,xmm4,xmm4
    1002:	c5 c9 fe f0          	vpaddd xmm6,xmm6,xmm0
    1006:	c5 c9 fe f3          	vpaddd xmm6,xmm6,xmm3
    100a:	c5 c9 fe f1          	vpaddd xmm6,xmm6,xmm1
    100e:	c5 c9 fe f4          	vpaddd xmm6,xmm6,xmm4
    1012:	ff ca                	dec    edx
    1014:	7f a3                	jg     fb9 <x264_8_pixel_var_8x16_avx+0x19>
    1016:	c5 d1 f5 2d 00 00 00 	vpmaddwd xmm5,xmm5,XMMWORD PTR [rip+0x0]        # 101e <x264_8_pixel_var_8x16_avx+0x7e>
    101d:	00 
    101e:	c5 d1 6a c6          	vpunpckhdq xmm0,xmm5,xmm6
    1022:	c5 d1 62 ee          	vpunpckldq xmm5,xmm5,xmm6
    1026:	c5 d1 fe e8          	vpaddd xmm5,xmm5,xmm0
    102a:	c5 d1 6d c5          	vpunpckhqdq xmm0,xmm5,xmm5
    102e:	c5 d1 fe e8          	vpaddd xmm5,xmm5,xmm0
    1032:	c4 e1 f9 7e e8       	vmovq  rax,xmm5
    1037:	c3                   	ret    
    1038:	0f 1f 84 00 00 00 00 	nop    DWORD PTR [rax+rax*1+0x0]
    103f:	00 

0000000000001040 <x264_8_pixel_var_16x16_avx2>:
    1040:	c5 d5 ef ed          	vpxor  ymm5,ymm5,ymm5
    1044:	c5 cd ef f6          	vpxor  ymm6,ymm6,ymm6
    1048:	ba 04 00 00 00       	mov    edx,0x4
    104d:	48 8d 0c 76          	lea    rcx,[rsi+rsi*2]
    1051:	c4 e2 7d 30 07       	vpmovzxbw ymm0,XMMWORD PTR [rdi]
    1056:	c4 e2 7d 30 1c 37    	vpmovzxbw ymm3,XMMWORD PTR [rdi+rsi*1]
    105c:	c4 e2 7d 30 0c 77    	vpmovzxbw ymm1,XMMWORD PTR [rdi+rsi*2]
    1062:	c4 e2 7d 30 24 0f    	vpmovzxbw ymm4,XMMWORD PTR [rdi+rcx*1]
    1068:	48 8d 3c b7          	lea    rdi,[rdi+rsi*4]
    106c:	c5 d5 fd e8          	vpaddw ymm5,ymm5,ymm0
    1070:	c5 d5 fd eb          	vpaddw ymm5,ymm5,ymm3
    1074:	c5 d5 fd e9          	vpaddw ymm5,ymm5,ymm1
    1078:	c5 d5 fd ec          	vpaddw ymm5,ymm5,ymm4
    107c:	c5 fd f5 c0          	vpmaddwd ymm0,ymm0,ymm0
    1080:	c5 e5 f5 db          	vpmaddwd ymm3,ymm3,ymm3
    1084:	c5 f5 f5 c9          	vpmaddwd ymm1,ymm1,ymm1
    1088:	c5 dd f5 e4          	vpmaddwd ymm4,ymm4,ymm4
    108c:	c5 cd fe f0          	vpaddd ymm6,ymm6,ymm0
    1090:	c5 cd fe f3          	vpaddd ymm6,ymm6,ymm3
    1094:	c5 cd fe f1          	vpaddd ymm6,ymm6,ymm1
    1098:	c5 cd fe f4          	vpaddd ymm6,ymm6,ymm4
    109c:	ff ca                	dec    edx
    109e:	7f b1                	jg     1051 <x264_8_pixel_var_16x16_avx2+0x11>
    10a0:	c5 d5 f5 2d 00 00 00 	vpmaddwd ymm5,ymm5,YMMWORD PTR [rip+0x0]        # 10a8 <x264_8_pixel_var_16x16_avx2+0x68>
    10a7:	00 
    10a8:	c5 d5 6a c6          	vpunpckhdq ymm0,ymm5,ymm6
    10ac:	c5 d5 62 ee          	vpunpckldq ymm5,ymm5,ymm6
    10b0:	c5 d5 fe e8          	vpaddd ymm5,ymm5,ymm0
    10b4:	c4 e3 7d 39 e8 01    	vextracti128 xmm0,ymm5,0x1
    10ba:	c5 d1 fe e8          	vpaddd xmm5,xmm5,xmm0
    10be:	c5 d1 6d c5          	vpunpckhqdq xmm0,xmm5,xmm5
    10c2:	c5 d1 fe e8          	vpaddd xmm5,xmm5,xmm0
    10c6:	c4 e1 f9 7e e8       	vmovq  rax,xmm5
    10cb:	c5 f8 77             	vzeroupper 
    10ce:	c3                   	ret    
    10cf:	90                   	nop

00000000000010d0 <x264_8_pixel_var_16x16_avx512>:
    10d0:	ba f0 00 00 00       	mov    edx,0xf0
    10d5:	48 8d 0c 76          	lea    rcx,[rsi+rsi*2]
    10d9:	62 e2 fd 48 5b 25 00 	vbroadcasti64x4 zmm20,YMMWORD PTR [rip+0x0]        # 10e3 <x264_8_pixel_var_16x16_avx512+0x13>
    10e0:	00 00 00 
    10e3:	c5 f9 92 ca          	kmovb  k1,edx
    10e7:	62 e2 fd 28 5a 17    	vbroadcasti64x2 ymm18,XMMWORD PTR [rdi]
    10ed:	62 e2 fd 49 5a 14 37 	vbroadcasti64x2 zmm18{k1},XMMWORD PTR [rdi+rsi*1]
    10f4:	62 e2 fd 28 5a 1c 77 	vbroadcasti64x2 ymm19,XMMWORD PTR [rdi+rsi*2]
    10fb:	62 e2 fd 49 5a 1c 0f 	vbroadcasti64x2 zmm19{k1},XMMWORD PTR [rdi+rcx*1]
    1102:	62 a2 6d 40 00 d4    	vpshufb zmm18,zmm18,zmm20
    1108:	62 a2 65 40 00 dc    	vpshufb zmm19,zmm19,zmm20
    110e:	62 a1 6d 40 fd c3    	vpaddw zmm16,zmm18,zmm19
    1114:	62 a1 6d 40 f5 d2    	vpmaddwd zmm18,zmm18,zmm18
    111a:	62 a1 65 40 f5 db    	vpmaddwd zmm19,zmm19,zmm19
    1120:	62 a1 6d 40 fe cb    	vpaddd zmm17,zmm18,zmm19
    1126:	48 8d 3c b7          	lea    rdi,[rdi+rsi*4]
    112a:	62 e2 fd 28 5a 17    	vbroadcasti64x2 ymm18,XMMWORD PTR [rdi]
    1130:	62 e2 fd 49 5a 14 37 	vbroadcasti64x2 zmm18{k1},XMMWORD PTR [rdi+rsi*1]
    1137:	62 e2 fd 28 5a 1c 77 	vbroadcasti64x2 ymm19,XMMWORD PTR [rdi+rsi*2]
    113e:	62 e2 fd 49 5a 1c 0f 	vbroadcasti64x2 zmm19{k1},XMMWORD PTR [rdi+rcx*1]
    1145:	62 a2 6d 40 00 d4    	vpshufb zmm18,zmm18,zmm20
    114b:	62 a2 65 40 00 dc    	vpshufb zmm19,zmm19,zmm20
    1151:	62 a1 7d 40 fd c2    	vpaddw zmm16,zmm16,zmm18
    1157:	62 a1 6d 40 f5 d2    	vpmaddwd zmm18,zmm18,zmm18
    115d:	62 a1 7d 40 fd c3    	vpaddw zmm16,zmm16,zmm19
    1163:	62 a1 65 40 f5 db    	vpmaddwd zmm19,zmm19,zmm19
    1169:	62 a1 75 40 fe ca    	vpaddd zmm17,zmm17,zmm18
    116f:	62 a1 75 40 fe cb    	vpaddd zmm17,zmm17,zmm19
    1175:	83 ea 50             	sub    edx,0x50
    1178:	7f ac                	jg     1126 <x264_8_pixel_var_16x16_avx512+0x56>
    117a:	62 e2 7d 48 5a 15 00 	vbroadcasti32x4 zmm18,XMMWORD PTR [rip+0x0]        # 1184 <x264_8_pixel_var_16x16_avx512+0xb4>
    1181:	00 00 00 
    1184:	62 a1 7d 40 f5 c2    	vpmaddwd zmm16,zmm16,zmm18
    118a:	62 a1 7d 40 6a d1    	vpunpckhdq zmm18,zmm16,zmm17
    1190:	62 a1 7d 40 62 c1    	vpunpckldq zmm16,zmm16,zmm17
    1196:	62 a1 7d 40 fe c2    	vpaddd zmm16,zmm16,zmm18
    119c:	62 a3 7d 48 3b c2 01 	vextracti32x8 ymm18,zmm16,0x1
    11a3:	62 a1 7d 20 fe c2    	vpaddd ymm16,ymm16,ymm18
    11a9:	62 a3 7d 28 39 c2 01 	vextracti32x4 xmm18,ymm16,0x1
    11b0:	62 b1 7d 00 fe c2    	vpaddd xmm0,xmm16,xmm18
    11b6:	c5 f9 6d c8          	vpunpckhqdq xmm1,xmm0,xmm0
    11ba:	c5 f9 fe c1          	vpaddd xmm0,xmm0,xmm1
    11be:	c4 e1 f9 7e c0       	vmovq  rax,xmm0
    11c3:	c3                   	ret    
    11c4:	0f 1f 84 00 00 00 00 	nop    DWORD PTR [rax+rax*1+0x0]
    11cb:	00 
    11cc:	0f 1f 40 00          	nop    DWORD PTR [rax+0x0]

00000000000011d0 <x264_8_pixel_var_8x8_avx512>:
    11d0:	48 8d 14 76          	lea    rdx,[rsi+rsi*2]
    11d4:	62 a1 5d 00 ef e4    	vpxord xmm20,xmm20,xmm20
    11da:	62 e1 fd 08 6e 17    	vmovq  xmm18,QWORD PTR [rdi]
    11e0:	62 e1 fd 08 6e 1c 37 	vmovq  xmm19,QWORD PTR [rdi+rsi*1]
    11e7:	62 e3 6d 20 38 14 77 	vinserti32x4 ymm18,ymm18,XMMWORD PTR [rdi+rsi*2],0x1
    11ee:	01 
    11ef:	62 e3 65 20 38 1c 17 	vinserti32x4 ymm19,ymm19,XMMWORD PTR [rdi+rdx*1],0x1
    11f6:	01 
    11f7:	48 8d 3c b7          	lea    rdi,[rdi+rsi*4]
    11fb:	62 e3 6d 40 38 17 02 	vinserti32x4 zmm18,zmm18,XMMWORD PTR [rdi],0x2
    1202:	62 e3 65 40 38 1c 37 	vinserti32x4 zmm19,zmm19,XMMWORD PTR [rdi+rsi*1],0x2
    1209:	02 
    120a:	62 e3 6d 40 38 14 77 	vinserti32x4 zmm18,zmm18,XMMWORD PTR [rdi+rsi*2],0x3
    1211:	03 
    1212:	62 e3 65 40 38 1c 17 	vinserti32x4 zmm19,zmm19,XMMWORD PTR [rdi+rdx*1],0x3
    1219:	03 
    121a:	62 a1 6d 40 60 d4    	vpunpcklbw zmm18,zmm18,zmm20
    1220:	62 a1 65 40 60 dc    	vpunpcklbw zmm19,zmm19,zmm20
    1226:	62 a1 6d 40 fd c3    	vpaddw zmm16,zmm18,zmm19
    122c:	62 a1 6d 40 f5 d2    	vpmaddwd zmm18,zmm18,zmm18
    1232:	62 a1 65 40 f5 db    	vpmaddwd zmm19,zmm19,zmm19
    1238:	62 a1 6d 40 fe cb    	vpaddd zmm17,zmm18,zmm19
    123e:	e9 37 ff ff ff       	jmp    117a <x264_8_pixel_var_16x16_avx512+0xaa>
    1243:	0f 1f 84 00 00 00 00 	nop    DWORD PTR [rax+rax*1+0x0]
    124a:	00 
    124b:	0f 1f 44 00 00       	nop    DWORD PTR [rax+rax*1+0x0]

0000000000001250 <x264_8_pixel_var_8x16_avx512>:
    1250:	48 8d 14 76          	lea    rdx,[rsi+rsi*2]
    1254:	62 a1 5d 00 ef e4    	vpxord xmm20,xmm20,xmm20
    125a:	62 e1 fd 08 6e 17    	vmovq  xmm18,QWORD PTR [rdi]
    1260:	62 e1 fd 08 6e 1c 37 	vmovq  xmm19,QWORD PTR [rdi+rsi*1]
    1267:	62 e3 6d 20 38 14 77 	vinserti32x4 ymm18,ymm18,XMMWORD PTR [rdi+rsi*2],0x1
    126e:	01 
    126f:	62 e3 65 20 38 1c 17 	vinserti32x4 ymm19,ymm19,XMMWORD PTR [rdi+rdx*1],0x1
    1276:	01 
    1277:	48 8d 3c b7          	lea    rdi,[rdi+rsi*4]
    127b:	62 e3 6d 40 38 17 02 	vinserti32x4 zmm18,zmm18,XMMWORD PTR [rdi],0x2
    1282:	62 e3 65 40 38 1c 37 	vinserti32x4 zmm19,zmm19,XMMWORD PTR [rdi+rsi*1],0x2
    1289:	02 
    128a:	62 e3 6d 40 38 14 77 	vinserti32x4 zmm18,zmm18,XMMWORD PTR [rdi+rsi*2],0x3
    1291:	03 
    1292:	62 e3 65 40 38 1c 17 	vinserti32x4 zmm19,zmm19,XMMWORD PTR [rdi+rdx*1],0x3
    1299:	03 
    129a:	62 a1 6d 40 60 d4    	vpunpcklbw zmm18,zmm18,zmm20
    12a0:	62 a1 65 40 60 dc    	vpunpcklbw zmm19,zmm19,zmm20
    12a6:	62 a1 6d 40 fd c3    	vpaddw zmm16,zmm18,zmm19
    12ac:	62 a1 6d 40 f5 d2    	vpmaddwd zmm18,zmm18,zmm18
    12b2:	62 a1 65 40 f5 db    	vpmaddwd zmm19,zmm19,zmm19
    12b8:	62 a1 6d 40 fe cb    	vpaddd zmm17,zmm18,zmm19
    12be:	48 8d 3c b7          	lea    rdi,[rdi+rsi*4]
    12c2:	62 e1 fd 08 6e 17    	vmovq  xmm18,QWORD PTR [rdi]
    12c8:	62 e1 fd 08 6e 1c 37 	vmovq  xmm19,QWORD PTR [rdi+rsi*1]
    12cf:	62 e3 6d 20 38 14 77 	vinserti32x4 ymm18,ymm18,XMMWORD PTR [rdi+rsi*2],0x1
    12d6:	01 
    12d7:	62 e3 65 20 38 1c 17 	vinserti32x4 ymm19,ymm19,XMMWORD PTR [rdi+rdx*1],0x1
    12de:	01 
    12df:	48 8d 3c b7          	lea    rdi,[rdi+rsi*4]
    12e3:	62 e3 6d 40 38 17 02 	vinserti32x4 zmm18,zmm18,XMMWORD PTR [rdi],0x2
    12ea:	62 e3 65 40 38 1c 37 	vinserti32x4 zmm19,zmm19,XMMWORD PTR [rdi+rsi*1],0x2
    12f1:	02 
    12f2:	62 e3 6d 40 38 14 77 	vinserti32x4 zmm18,zmm18,XMMWORD PTR [rdi+rsi*2],0x3
    12f9:	03 
    12fa:	62 e3 65 40 38 1c 17 	vinserti32x4 zmm19,zmm19,XMMWORD PTR [rdi+rdx*1],0x3
    1301:	03 
    1302:	62 a1 6d 40 60 d4    	vpunpcklbw zmm18,zmm18,zmm20
    1308:	62 a1 65 40 60 dc    	vpunpcklbw zmm19,zmm19,zmm20
    130e:	62 a1 7d 40 fd c2    	vpaddw zmm16,zmm16,zmm18
    1314:	62 a1 6d 40 f5 d2    	vpmaddwd zmm18,zmm18,zmm18
    131a:	62 a1 7d 40 fd c3    	vpaddw zmm16,zmm16,zmm19
    1320:	62 a1 65 40 f5 db    	vpmaddwd zmm19,zmm19,zmm19
    1326:	62 a1 75 40 fe ca    	vpaddd zmm17,zmm17,zmm18
    132c:	62 a1 75 40 fe cb    	vpaddd zmm17,zmm17,zmm19
    1332:	e9 43 fe ff ff       	jmp    117a <x264_8_pixel_var_16x16_avx512+0xaa>
    1337:	0f 1f 84 00 00 00 00 	nop    DWORD PTR [rax+rax*1+0x0]
    133e:	00 
    133f:	90                   	nop

0000000000001340 <x264_8_pixel_var2_8x8_sse2>:
    1340:	66 0f 6f 35 00 00 00 	movdqa xmm6,XMMWORD PTR [rip+0x0]        # 1348 <x264_8_pixel_var2_8x8_sse2+0x8>
    1347:	00 
    1348:	66 0f ef c0          	pxor   xmm0,xmm0
    134c:	66 0f ef c9          	pxor   xmm1,xmm1
    1350:	b8 70 00 00 00       	mov    eax,0x70
    1355:	66 0f 6f 1c 07       	movdqa xmm3,XMMWORD PTR [rdi+rax*1]
    135a:	f3 0f 7e 2c 46       	movq   xmm5,QWORD PTR [rsi+rax*2]
    135f:	66 0f 6c 6c 46 10    	punpcklqdq xmm5,XMMWORD PTR [rsi+rax*2+0x10]
    1365:	66 0f 6f e6          	movdqa xmm4,xmm6
    1369:	66 0f db e5          	pand   xmm4,xmm5
    136d:	66 0f 6f d6          	movdqa xmm2,xmm6
    1371:	66 0f db d3          	pand   xmm2,xmm3
    1375:	66 0f 71 d3 08       	psrlw  xmm3,0x8
    137a:	66 0f 71 d5 08       	psrlw  xmm5,0x8
    137f:	66 0f f9 d4          	psubw  xmm2,xmm4
    1383:	66 0f f9 dd          	psubw  xmm3,xmm5
    1387:	66 0f fd c2          	paddw  xmm0,xmm2
    138b:	66 0f f5 d2          	pmaddwd xmm2,xmm2
    138f:	66 0f fd c3          	paddw  xmm0,xmm3
    1393:	66 0f f5 db          	pmaddwd xmm3,xmm3
    1397:	66 0f fe ca          	paddd  xmm1,xmm2
    139b:	66 0f fe cb          	paddd  xmm1,xmm3
    139f:	83 e8 10             	sub    eax,0x10
    13a2:	7d b1                	jge    1355 <x264_8_pixel_var2_8x8_sse2+0x15>
    13a4:	66 0f f5 05 00 00 00 	pmaddwd xmm0,XMMWORD PTR [rip+0x0]        # 13ac <x264_8_pixel_var2_8x8_sse2+0x6c>
    13ab:	00 
    13ac:	0f 28 d0             	movaps xmm2,xmm0
    13af:	0f c6 d1 88          	shufps xmm2,xmm1,0x88
    13b3:	0f c6 c1 dd          	shufps xmm0,xmm1,0xdd
    13b7:	66 0f fe c2          	paddd  xmm0,xmm2
    13bb:	66 0f 70 c0 d8       	pshufd xmm0,xmm0,0xd8
    13c0:	66 0f 70 c8 fd       	pshufd xmm1,xmm0,0xfd
    13c5:	66 0f f4 c0          	pmuludq xmm0,xmm0
    13c9:	66 0f d6 0a          	movq   QWORD PTR [rdx],xmm1
    13cd:	66 0f 72 d0 06       	psrld  xmm0,0x6
    13d2:	66 0f fa c8          	psubd  xmm1,xmm0
    13d6:	0f 12 c1             	movhlps xmm0,xmm1
    13d9:	66 0f fe c1          	paddd  xmm0,xmm1
    13dd:	66 0f 7e c0          	movd   eax,xmm0
    13e1:	c3                   	ret    
    13e2:	0f 1f 84 00 00 00 00 	nop    DWORD PTR [rax+rax*1+0x0]
    13e9:	00 
    13ea:	66 0f 1f 44 00 00    	nop    WORD PTR [rax+rax*1+0x0]

00000000000013f0 <x264_8_pixel_var2_8x16_sse2>:
    13f0:	66 0f 6f 35 00 00 00 	movdqa xmm6,XMMWORD PTR [rip+0x0]        # 13f8 <x264_8_pixel_var2_8x16_sse2+0x8>
    13f7:	00 
    13f8:	66 0f ef c0          	pxor   xmm0,xmm0
    13fc:	66 0f ef c9          	pxor   xmm1,xmm1
    1400:	b8 f0 00 00 00       	mov    eax,0xf0
    1405:	66 0f 6f 1c 07       	movdqa xmm3,XMMWORD PTR [rdi+rax*1]
    140a:	f3 0f 7e 2c 46       	movq   xmm5,QWORD PTR [rsi+rax*2]
    140f:	66 0f 6c 6c 46 10    	punpcklqdq xmm5,XMMWORD PTR [rsi+rax*2+0x10]
    1415:	66 0f 6f e6          	movdqa xmm4,xmm6
    1419:	66 0f db e5          	pand   xmm4,xmm5
    141d:	66 0f 6f d6          	movdqa xmm2,xmm6
    1421:	66 0f db d3          	pand   xmm2,xmm3
    1425:	66 0f 71 d3 08       	psrlw  xmm3,0x8
    142a:	66 0f 71 d5 08       	psrlw  xmm5,0x8
    142f:	66 0f f9 d4          	psubw  xmm2,xmm4
    1433:	66 0f f9 dd          	psubw  xmm3,xmm5
    1437:	66 0f fd c2          	paddw  xmm0,xmm2
    143b:	66 0f f5 d2          	pmaddwd xmm2,xmm2
    143f:	66 0f fd c3          	paddw  xmm0,xmm3
    1443:	66 0f f5 db          	pmaddwd xmm3,xmm3
    1447:	66 0f fe ca          	paddd  xmm1,xmm2
    144b:	66 0f fe cb          	paddd  xmm1,xmm3
    144f:	83 e8 10             	sub    eax,0x10
    1452:	7d b1                	jge    1405 <x264_8_pixel_var2_8x16_sse2+0x15>
    1454:	66 0f f5 05 00 00 00 	pmaddwd xmm0,XMMWORD PTR [rip+0x0]        # 145c <x264_8_pixel_var2_8x16_sse2+0x6c>
    145b:	00 
    145c:	0f 28 d0             	movaps xmm2,xmm0
    145f:	0f c6 d1 88          	shufps xmm2,xmm1,0x88
    1463:	0f c6 c1 dd          	shufps xmm0,xmm1,0xdd
    1467:	66 0f fe c2          	paddd  xmm0,xmm2
    146b:	66 0f 70 c0 d8       	pshufd xmm0,xmm0,0xd8
    1470:	66 0f 70 c8 fd       	pshufd xmm1,xmm0,0xfd
    1475:	66 0f f4 c0          	pmuludq xmm0,xmm0
    1479:	66 0f d6 0a          	movq   QWORD PTR [rdx],xmm1
    147d:	66 0f 72 d0 07       	psrld  xmm0,0x7
    1482:	66 0f fa c8          	psubd  xmm1,xmm0
    1486:	0f 12 c1             	movhlps xmm0,xmm1
    1489:	66 0f fe c1          	paddd  xmm0,xmm1
    148d:	66 0f 7e c0          	movd   eax,xmm0
    1491:	c3                   	ret    
    1492:	0f 1f 84 00 00 00 00 	nop    DWORD PTR [rax+rax*1+0x0]
    1499:	00 
    149a:	66 0f 1f 44 00 00    	nop    WORD PTR [rax+rax*1+0x0]

00000000000014a0 <x264_8_pixel_var2_internal_ssse3>:
    14a0:	66 0f ef c0          	pxor   xmm0,xmm0
    14a4:	66 0f ef c9          	pxor   xmm1,xmm1
    14a8:	f3 0f 7e 14 07       	movq   xmm2,QWORD PTR [rdi+rax*1]
    14ad:	66 0f 60 14 46       	punpcklbw xmm2,XMMWORD PTR [rsi+rax*2]
    14b2:	f3 0f 7e 5c 07 f0    	movq   xmm3,QWORD PTR [rdi+rax*1-0x10]
    14b8:	66 0f 60 5c 46 e0    	punpcklbw xmm3,XMMWORD PTR [rsi+rax*2-0x20]
    14be:	f3 0f 7e 64 07 e0    	movq   xmm4,QWORD PTR [rdi+rax*1-0x20]
    14c4:	66 0f 60 64 46 c0    	punpcklbw xmm4,XMMWORD PTR [rsi+rax*2-0x40]
    14ca:	f3 0f 7e 6c 07 d0    	movq   xmm5,QWORD PTR [rdi+rax*1-0x30]
    14d0:	66 0f 60 6c 46 a0    	punpcklbw xmm5,XMMWORD PTR [rsi+rax*2-0x60]
    14d6:	66 0f 38 04 d7       	pmaddubsw xmm2,xmm7
    14db:	66 0f 38 04 df       	pmaddubsw xmm3,xmm7
    14e0:	66 0f 38 04 e7       	pmaddubsw xmm4,xmm7
    14e5:	66 0f 38 04 ef       	pmaddubsw xmm5,xmm7
    14ea:	66 0f fd c2          	paddw  xmm0,xmm2
    14ee:	66 0f f5 d2          	pmaddwd xmm2,xmm2
    14f2:	66 0f fd c3          	paddw  xmm0,xmm3
    14f6:	66 0f f5 db          	pmaddwd xmm3,xmm3
    14fa:	66 0f fe ca          	paddd  xmm1,xmm2
    14fe:	66 0f fe cb          	paddd  xmm1,xmm3
    1502:	66 0f fd c4          	paddw  xmm0,xmm4
    1506:	66 0f f5 e4          	pmaddwd xmm4,xmm4
    150a:	66 0f fd c5          	paddw  xmm0,xmm5
    150e:	66 0f f5 ed          	pmaddwd xmm5,xmm5
    1512:	66 0f fe cc          	paddd  xmm1,xmm4
    1516:	66 0f fe cd          	paddd  xmm1,xmm5
    151a:	83 e8 40             	sub    eax,0x40
    151d:	7f 89                	jg     14a8 <x264_8_pixel_var2_internal_ssse3+0x8>
    151f:	66 0f f5 05 00 00 00 	pmaddwd xmm0,XMMWORD PTR [rip+0x0]        # 1527 <x264_8_pixel_var2_internal_ssse3+0x87>
    1526:	00 
    1527:	c3                   	ret    
    1528:	0f 1f 84 00 00 00 00 	nop    DWORD PTR [rax+rax*1+0x0]
    152f:	00 

0000000000001530 <x264_8_pixel_var2_8x8_ssse3>:
    1530:	66 0f 6f 3d 00 00 00 	movdqa xmm7,XMMWORD PTR [rip+0x0]        # 1538 <x264_8_pixel_var2_8x8_ssse3+0x8>
    1537:	00 
    1538:	b8 70 00 00 00       	mov    eax,0x70
    153d:	e8 5e ff ff ff       	call   14a0 <x264_8_pixel_var2_internal_ssse3>
    1542:	48 83 c7 08          	add    rdi,0x8
    1546:	48 83 c6 10          	add    rsi,0x10
    154a:	66 0f 6f f0          	movdqa xmm6,xmm0
    154e:	66 0f 6c c1          	punpcklqdq xmm0,xmm1
    1552:	66 0f 6d f1          	punpckhqdq xmm6,xmm1
    1556:	66 0f fe f0          	paddd  xmm6,xmm0
    155a:	b8 70 00 00 00       	mov    eax,0x70
    155f:	e8 3c ff ff ff       	call   14a0 <x264_8_pixel_var2_internal_ssse3>
    1564:	66 0f 6f d0          	movdqa xmm2,xmm0
    1568:	66 0f 6c c1          	punpcklqdq xmm0,xmm1
    156c:	66 0f 6d d1          	punpckhqdq xmm2,xmm1
    1570:	66 0f fe c2          	paddd  xmm0,xmm2
    1574:	66 0f 38 02 f0       	phaddd xmm6,xmm0
    1579:	66 0f 70 c6 fd       	pshufd xmm0,xmm6,0xfd
    157e:	66 0f f4 f6          	pmuludq xmm6,xmm6
    1582:	66 0f d6 02          	movq   QWORD PTR [rdx],xmm0
    1586:	66 0f 72 d6 06       	psrld  xmm6,0x6
    158b:	66 0f fa c6          	psubd  xmm0,xmm6
    158f:	0f 12 f0             	movhlps xmm6,xmm0
    1592:	66 0f fe f0          	paddd  xmm6,xmm0
    1596:	66 0f 7e f0          	movd   eax,xmm6
    159a:	c3                   	ret    
    159b:	0f 1f 44 00 00       	nop    DWORD PTR [rax+rax*1+0x0]

00000000000015a0 <x264_8_pixel_var2_8x16_ssse3>:
    15a0:	66 0f 6f 3d 00 00 00 	movdqa xmm7,XMMWORD PTR [rip+0x0]        # 15a8 <x264_8_pixel_var2_8x16_ssse3+0x8>
    15a7:	00 
    15a8:	b8 f0 00 00 00       	mov    eax,0xf0
    15ad:	e8 ee fe ff ff       	call   14a0 <x264_8_pixel_var2_internal_ssse3>
    15b2:	48 83 c7 08          	add    rdi,0x8
    15b6:	48 83 c6 10          	add    rsi,0x10
    15ba:	66 0f 6f f0          	movdqa xmm6,xmm0
    15be:	66 0f 6c c1          	punpcklqdq xmm0,xmm1
    15c2:	66 0f 6d f1          	punpckhqdq xmm6,xmm1
    15c6:	66 0f fe f0          	paddd  xmm6,xmm0
    15ca:	b8 f0 00 00 00       	mov    eax,0xf0
    15cf:	e8 cc fe ff ff       	call   14a0 <x264_8_pixel_var2_internal_ssse3>
    15d4:	66 0f 6f d0          	movdqa xmm2,xmm0
    15d8:	66 0f 6c c1          	punpcklqdq xmm0,xmm1
    15dc:	66 0f 6d d1          	punpckhqdq xmm2,xmm1
    15e0:	66 0f fe c2          	paddd  xmm0,xmm2
    15e4:	66 0f 38 02 f0       	phaddd xmm6,xmm0
    15e9:	66 0f 70 c6 fd       	pshufd xmm0,xmm6,0xfd
    15ee:	66 0f f4 f6          	pmuludq xmm6,xmm6
    15f2:	66 0f d6 02          	movq   QWORD PTR [rdx],xmm0
    15f6:	66 0f 72 d6 07       	psrld  xmm6,0x7
    15fb:	66 0f fa c6          	psubd  xmm0,xmm6
    15ff:	0f 12 f0             	movhlps xmm6,xmm0
    1602:	66 0f fe f0          	paddd  xmm6,xmm0
    1606:	66 0f 7e f0          	movd   eax,xmm6
    160a:	c3                   	ret    
    160b:	0f 1f 44 00 00       	nop    DWORD PTR [rax+rax*1+0x0]

0000000000001610 <x264_8_pixel_var2_8x8_avx2>:
    1610:	c5 cd ef f6          	vpxor  ymm6,ymm6,ymm6
    1614:	b8 50 00 00 00       	mov    eax,0x50
    1619:	c4 e2 7d 30 54 07 20 	vpmovzxbw ymm2,XMMWORD PTR [rdi+rax*1+0x20]
    1620:	c5 fd 6f 64 46 40    	vmovdqa ymm4,YMMWORD PTR [rsi+rax*2+0x40]
    1626:	c4 e2 7d 30 5c 07 10 	vpmovzxbw ymm3,XMMWORD PTR [rdi+rax*1+0x10]
    162d:	c5 fd 6f 6c 46 20    	vmovdqa ymm5,YMMWORD PTR [rsi+rax*2+0x20]
    1633:	c5 dd 60 e6          	vpunpcklbw ymm4,ymm4,ymm6
    1637:	c5 d5 60 ee          	vpunpcklbw ymm5,ymm5,ymm6
    163b:	c5 ed f9 d4          	vpsubw ymm2,ymm2,ymm4
    163f:	c5 e5 f9 dd          	vpsubw ymm3,ymm3,ymm5
    1643:	c5 ed fd c3          	vpaddw ymm0,ymm2,ymm3
    1647:	c5 ed f5 d2          	vpmaddwd ymm2,ymm2,ymm2
    164b:	c5 e5 f5 db          	vpmaddwd ymm3,ymm3,ymm3
    164f:	c5 ed fe cb          	vpaddd ymm1,ymm2,ymm3
    1653:	c4 e2 7d 30 14 07    	vpmovzxbw ymm2,XMMWORD PTR [rdi+rax*1]
    1659:	c5 fd 6f 24 46       	vmovdqa ymm4,YMMWORD PTR [rsi+rax*2]
    165e:	c4 e2 7d 30 5c 07 f0 	vpmovzxbw ymm3,XMMWORD PTR [rdi+rax*1-0x10]
    1665:	c5 fd 6f 6c 46 e0    	vmovdqa ymm5,YMMWORD PTR [rsi+rax*2-0x20]
    166b:	c5 dd 60 e6          	vpunpcklbw ymm4,ymm4,ymm6
    166f:	c5 d5 60 ee          	vpunpcklbw ymm5,ymm5,ymm6
    1673:	c5 ed f9 d4          	vpsubw ymm2,ymm2,ymm4
    1677:	c5 e5 f9 dd          	vpsubw ymm3,ymm3,ymm5
    167b:	c5 fd fd c2          	vpaddw ymm0,ymm0,ymm2
    167f:	c5 ed f5 d2          	vpmaddwd ymm2,ymm2,ymm2
    1683:	c5 fd fd c3          	vpaddw ymm0,ymm0,ymm3
    1687:	c5 e5 f5 db          	vpmaddwd ymm3,ymm3,ymm3
    168b:	c5 f5 fe ca          	vpaddd ymm1,ymm1,ymm2
    168f:	c5 f5 fe cb          	vpaddd ymm1,ymm1,ymm3
    1693:	83 e8 20             	sub    eax,0x20
    1696:	7f bb                	jg     1653 <x264_8_pixel_var2_8x8_avx2+0x43>
    1698:	c5 fd f5 05 00 00 00 	vpmaddwd ymm0,ymm0,YMMWORD PTR [rip+0x0]        # 16a0 <x264_8_pixel_var2_8x8_avx2+0x90>
    169f:	00 
    16a0:	c5 fd 6d d1          	vpunpckhqdq ymm2,ymm0,ymm1
    16a4:	c5 fd 6c c1          	vpunpcklqdq ymm0,ymm0,ymm1
    16a8:	c5 fd fe c2          	vpaddd ymm0,ymm0,ymm2
    16ac:	c4 e3 7d 39 c2 01    	vextracti128 xmm2,ymm0,0x1
    16b2:	c4 e2 79 02 c2       	vphaddd xmm0,xmm0,xmm2
    16b7:	c5 f9 70 d0 fd       	vpshufd xmm2,xmm0,0xfd
    16bc:	c5 f9 f4 c0          	vpmuludq xmm0,xmm0,xmm0
    16c0:	c5 f9 d6 12          	vmovq  QWORD PTR [rdx],xmm2
    16c4:	c5 f9 72 d0 06       	vpsrld xmm0,xmm0,0x6
    16c9:	c5 e9 fa d0          	vpsubd xmm2,xmm2,xmm0
    16cd:	c5 e9 6d c2          	vpunpckhqdq xmm0,xmm2,xmm2
    16d1:	c5 f9 fe c2          	vpaddd xmm0,xmm0,xmm2
    16d5:	c5 f9 7e c0          	vmovd  eax,xmm0
    16d9:	c5 f8 77             	vzeroupper 
    16dc:	c3                   	ret    
    16dd:	0f 1f 00             	nop    DWORD PTR [rax]

00000000000016e0 <x264_8_pixel_var2_8x16_avx2>:
    16e0:	c5 cd ef f6          	vpxor  ymm6,ymm6,ymm6
    16e4:	b8 d0 00 00 00       	mov    eax,0xd0
    16e9:	c4 e2 7d 30 54 07 20 	vpmovzxbw ymm2,XMMWORD PTR [rdi+rax*1+0x20]
    16f0:	c5 fd 6f 64 46 40    	vmovdqa ymm4,YMMWORD PTR [rsi+rax*2+0x40]
    16f6:	c4 e2 7d 30 5c 07 10 	vpmovzxbw ymm3,XMMWORD PTR [rdi+rax*1+0x10]
    16fd:	c5 fd 6f 6c 46 20    	vmovdqa ymm5,YMMWORD PTR [rsi+rax*2+0x20]
    1703:	c5 dd 60 e6          	vpunpcklbw ymm4,ymm4,ymm6
    1707:	c5 d5 60 ee          	vpunpcklbw ymm5,ymm5,ymm6
    170b:	c5 ed f9 d4          	vpsubw ymm2,ymm2,ymm4
    170f:	c5 e5 f9 dd          	vpsubw ymm3,ymm3,ymm5
    1713:	c5 ed fd c3          	vpaddw ymm0,ymm2,ymm3
    1717:	c5 ed f5 d2          	vpmaddwd ymm2,ymm2,ymm2
    171b:	c5 e5 f5 db          	vpmaddwd ymm3,ymm3,ymm3
    171f:	c5 ed fe cb          	vpaddd ymm1,ymm2,ymm3
    1723:	c4 e2 7d 30 14 07    	vpmovzxbw ymm2,XMMWORD PTR [rdi+rax*1]
    1729:	c5 fd 6f 24 46       	vmovdqa ymm4,YMMWORD PTR [rsi+rax*2]
    172e:	c4 e2 7d 30 5c 07 f0 	vpmovzxbw ymm3,XMMWORD PTR [rdi+rax*1-0x10]
    1735:	c5 fd 6f 6c 46 e0    	vmovdqa ymm5,YMMWORD PTR [rsi+rax*2-0x20]
    173b:	c5 dd 60 e6          	vpunpcklbw ymm4,ymm4,ymm6
    173f:	c5 d5 60 ee          	vpunpcklbw ymm5,ymm5,ymm6
    1743:	c5 ed f9 d4          	vpsubw ymm2,ymm2,ymm4
    1747:	c5 e5 f9 dd          	vpsubw ymm3,ymm3,ymm5
    174b:	c5 fd fd c2          	vpaddw ymm0,ymm0,ymm2
    174f:	c5 ed f5 d2          	vpmaddwd ymm2,ymm2,ymm2
    1753:	c5 fd fd c3          	vpaddw ymm0,ymm0,ymm3
    1757:	c5 e5 f5 db          	vpmaddwd ymm3,ymm3,ymm3
    175b:	c5 f5 fe ca          	vpaddd ymm1,ymm1,ymm2
    175f:	c5 f5 fe cb          	vpaddd ymm1,ymm1,ymm3
    1763:	83 e8 20             	sub    eax,0x20
    1766:	7f bb                	jg     1723 <x264_8_pixel_var2_8x16_avx2+0x43>
    1768:	c5 fd f5 05 00 00 00 	vpmaddwd ymm0,ymm0,YMMWORD PTR [rip+0x0]        # 1770 <x264_8_pixel_var2_8x16_avx2+0x90>
    176f:	00 
    1770:	c5 fd 6d d1          	vpunpckhqdq ymm2,ymm0,ymm1
    1774:	c5 fd 6c c1          	vpunpcklqdq ymm0,ymm0,ymm1
    1778:	c5 fd fe c2          	vpaddd ymm0,ymm0,ymm2
    177c:	c4 e3 7d 39 c2 01    	vextracti128 xmm2,ymm0,0x1
    1782:	c4 e2 79 02 c2       	vphaddd xmm0,xmm0,xmm2
    1787:	c5 f9 70 d0 fd       	vpshufd xmm2,xmm0,0xfd
    178c:	c5 f9 f4 c0          	vpmuludq xmm0,xmm0,xmm0
    1790:	c5 f9 d6 12          	vmovq  QWORD PTR [rdx],xmm2
    1794:	c5 f9 72 d0 07       	vpsrld xmm0,xmm0,0x7
    1799:	c5 e9 fa d0          	vpsubd xmm2,xmm2,xmm0
    179d:	c5 e9 6d c2          	vpunpckhqdq xmm0,xmm2,xmm2
    17a1:	c5 f9 fe c2          	vpaddd xmm0,xmm0,xmm2
    17a5:	c5 f9 7e c0          	vmovd  eax,xmm0
    17a9:	c5 f8 77             	vzeroupper 
    17ac:	c3                   	ret    
    17ad:	0f 1f 00             	nop    DWORD PTR [rax]

00000000000017b0 <x264_8_pixel_var2_8x8_avx512>:
    17b0:	62 a1 4d 00 ef f6    	vpxord xmm22,xmm22,xmm22
    17b6:	62 e2 7d 48 30 17    	vpmovzxbw zmm18,YMMWORD PTR [rdi]
    17bc:	62 e1 7d 48 6f 26    	vmovdqa32 zmm20,ZMMWORD PTR [rsi]
    17c2:	62 e2 7d 48 30 5f 01 	vpmovzxbw zmm19,YMMWORD PTR [rdi+0x20]
    17c9:	62 e1 7d 48 6f 6e 01 	vmovdqa32 zmm21,ZMMWORD PTR [rsi+0x40]
    17d0:	62 a1 5d 40 60 e6    	vpunpcklbw zmm20,zmm20,zmm22
    17d6:	62 a1 55 40 60 ee    	vpunpcklbw zmm21,zmm21,zmm22
    17dc:	62 a1 6d 40 f9 d4    	vpsubw zmm18,zmm18,zmm20
    17e2:	62 a1 65 40 f9 dd    	vpsubw zmm19,zmm19,zmm21
    17e8:	62 a1 6d 40 fd c3    	vpaddw zmm16,zmm18,zmm19
    17ee:	62 a1 6d 40 f5 d2    	vpmaddwd zmm18,zmm18,zmm18
    17f4:	62 a1 65 40 f5 db    	vpmaddwd zmm19,zmm19,zmm19
    17fa:	62 a1 6d 40 fe cb    	vpaddd zmm17,zmm18,zmm19
    1800:	62 e2 7d 48 30 57 02 	vpmovzxbw zmm18,YMMWORD PTR [rdi+0x40]
    1807:	62 e1 7d 48 6f 66 02 	vmovdqa32 zmm20,ZMMWORD PTR [rsi+0x80]
    180e:	62 e2 7d 48 30 5f 03 	vpmovzxbw zmm19,YMMWORD PTR [rdi+0x60]
    1815:	62 e1 7d 48 6f 6e 03 	vmovdqa32 zmm21,ZMMWORD PTR [rsi+0xc0]
    181c:	62 a1 5d 40 60 e6    	vpunpcklbw zmm20,zmm20,zmm22
    1822:	62 a1 55 40 60 ee    	vpunpcklbw zmm21,zmm21,zmm22
    1828:	62 a1 6d 40 f9 d4    	vpsubw zmm18,zmm18,zmm20
    182e:	62 a1 65 40 f9 dd    	vpsubw zmm19,zmm19,zmm21
    1834:	62 a1 7d 40 fd c2    	vpaddw zmm16,zmm16,zmm18
    183a:	62 a1 6d 40 f5 d2    	vpmaddwd zmm18,zmm18,zmm18
    1840:	62 a1 7d 40 fd c3    	vpaddw zmm16,zmm16,zmm19
    1846:	62 a1 65 40 f5 db    	vpmaddwd zmm19,zmm19,zmm19
    184c:	62 a1 75 40 fe ca    	vpaddd zmm17,zmm17,zmm18
    1852:	62 a1 75 40 fe cb    	vpaddd zmm17,zmm17,zmm19
    1858:	62 e2 7d 48 5a 15 00 	vbroadcasti32x4 zmm18,XMMWORD PTR [rip+0x0]        # 1862 <x264_8_pixel_var2_8x8_avx512+0xb2>
    185f:	00 00 00 
    1862:	62 a1 7d 40 f5 c2    	vpmaddwd zmm16,zmm16,zmm18
    1868:	62 a1 fd 40 6d d1    	vpunpckhqdq zmm18,zmm16,zmm17
    186e:	62 a1 fd 40 6c c1    	vpunpcklqdq zmm16,zmm16,zmm17
    1874:	62 a1 7d 40 fe c2    	vpaddd zmm16,zmm16,zmm18
    187a:	62 a3 7d 48 3b c2 01 	vextracti32x8 ymm18,zmm16,0x1
    1881:	62 a1 7d 20 fe c2    	vpaddd ymm16,ymm16,ymm18
    1887:	62 b1 ed 20 73 d0 20 	vpsrlq ymm18,ymm16,0x20
    188e:	62 a1 7d 20 fe c2    	vpaddd ymm16,ymm16,ymm18
    1894:	62 e2 7e 28 35 c0    	vpmovqd xmm0,ymm16
    189a:	c5 f9 70 c8 fd       	vpshufd xmm1,xmm0,0xfd
    189f:	c5 f9 f4 c0          	vpmuludq xmm0,xmm0,xmm0
    18a3:	c5 f9 d6 0a          	vmovq  QWORD PTR [rdx],xmm1
    18a7:	c5 f9 72 d0 06       	vpsrld xmm0,xmm0,0x6
    18ac:	c5 f1 fa c8          	vpsubd xmm1,xmm1,xmm0
    18b0:	c5 f1 6d c1          	vpunpckhqdq xmm0,xmm1,xmm1
    18b4:	c5 f9 fe c1          	vpaddd xmm0,xmm0,xmm1
    18b8:	c5 f9 7e c0          	vmovd  eax,xmm0
    18bc:	c3                   	ret    
    18bd:	0f 1f 00             	nop    DWORD PTR [rax]

00000000000018c0 <x264_8_pixel_var2_8x16_avx512>:
    18c0:	62 a1 4d 00 ef f6    	vpxord xmm22,xmm22,xmm22
    18c6:	b8 a0 00 00 00       	mov    eax,0xa0
    18cb:	62 e2 7d 48 30 57 07 	vpmovzxbw zmm18,YMMWORD PTR [rdi+0xe0]
    18d2:	62 e1 7d 48 6f 66 07 	vmovdqa32 zmm20,ZMMWORD PTR [rsi+0x1c0]
    18d9:	62 e2 7d 48 30 5f 06 	vpmovzxbw zmm19,YMMWORD PTR [rdi+0xc0]
    18e0:	62 e1 7d 48 6f 6e 06 	vmovdqa32 zmm21,ZMMWORD PTR [rsi+0x180]
    18e7:	62 a1 5d 40 60 e6    	vpunpcklbw zmm20,zmm20,zmm22
    18ed:	62 a1 55 40 60 ee    	vpunpcklbw zmm21,zmm21,zmm22
    18f3:	62 a1 6d 40 f9 d4    	vpsubw zmm18,zmm18,zmm20
    18f9:	62 a1 65 40 f9 dd    	vpsubw zmm19,zmm19,zmm21
    18ff:	62 a1 6d 40 fd c3    	vpaddw zmm16,zmm18,zmm19
    1905:	62 a1 6d 40 f5 d2    	vpmaddwd zmm18,zmm18,zmm18
    190b:	62 a1 65 40 f5 db    	vpmaddwd zmm19,zmm19,zmm19
    1911:	62 a1 6d 40 fe cb    	vpaddd zmm17,zmm18,zmm19
    1917:	62 e2 7d 48 30 14 07 	vpmovzxbw zmm18,YMMWORD PTR [rdi+rax*1]
    191e:	62 e1 7d 48 6f 24 46 	vmovdqa32 zmm20,ZMMWORD PTR [rsi+rax*2]
    1925:	62 e2 7d 48 30 5c 07 	vpmovzxbw zmm19,YMMWORD PTR [rdi+rax*1-0x20]
    192c:	ff 
    192d:	62 e1 7d 48 6f 6c 46 	vmovdqa32 zmm21,ZMMWORD PTR [rsi+rax*2-0x40]
    1934:	ff 
    1935:	62 a1 5d 40 60 e6    	vpunpcklbw zmm20,zmm20,zmm22
    193b:	62 a1 55 40 60 ee    	vpunpcklbw zmm21,zmm21,zmm22
    1941:	62 a1 6d 40 f9 d4    	vpsubw zmm18,zmm18,zmm20
    1947:	62 a1 65 40 f9 dd    	vpsubw zmm19,zmm19,zmm21
    194d:	62 a1 7d 40 fd c2    	vpaddw zmm16,zmm16,zmm18
    1953:	62 a1 6d 40 f5 d2    	vpmaddwd zmm18,zmm18,zmm18
    1959:	62 a1 7d 40 fd c3    	vpaddw zmm16,zmm16,zmm19
    195f:	62 a1 65 40 f5 db    	vpmaddwd zmm19,zmm19,zmm19
    1965:	62 a1 75 40 fe ca    	vpaddd zmm17,zmm17,zmm18
    196b:	62 a1 75 40 fe cb    	vpaddd zmm17,zmm17,zmm19
    1971:	83 e8 40             	sub    eax,0x40
    1974:	7f a1                	jg     1917 <x264_8_pixel_var2_8x16_avx512+0x57>
    1976:	62 e2 7d 48 5a 15 00 	vbroadcasti32x4 zmm18,XMMWORD PTR [rip+0x0]        # 1980 <x264_8_pixel_var2_8x16_avx512+0xc0>
    197d:	00 00 00 
    1980:	62 a1 7d 40 f5 c2    	vpmaddwd zmm16,zmm16,zmm18
    1986:	62 a1 fd 40 6d d1    	vpunpckhqdq zmm18,zmm16,zmm17
    198c:	62 a1 fd 40 6c c1    	vpunpcklqdq zmm16,zmm16,zmm17
    1992:	62 a1 7d 40 fe c2    	vpaddd zmm16,zmm16,zmm18
    1998:	62 a3 7d 48 3b c2 01 	vextracti32x8 ymm18,zmm16,0x1
    199f:	62 a1 7d 20 fe c2    	vpaddd ymm16,ymm16,ymm18
    19a5:	62 b1 ed 20 73 d0 20 	vpsrlq ymm18,ymm16,0x20
    19ac:	62 a1 7d 20 fe c2    	vpaddd ymm16,ymm16,ymm18
    19b2:	62 e2 7e 28 35 c0    	vpmovqd xmm0,ymm16
    19b8:	c5 f9 70 c8 fd       	vpshufd xmm1,xmm0,0xfd
    19bd:	c5 f9 f4 c0          	vpmuludq xmm0,xmm0,xmm0
    19c1:	c5 f9 d6 0a          	vmovq  QWORD PTR [rdx],xmm1
    19c5:	c5 f9 72 d0 07       	vpsrld xmm0,xmm0,0x7
    19ca:	c5 f1 fa c8          	vpsubd xmm1,xmm1,xmm0
    19ce:	c5 f1 6d c1          	vpunpckhqdq xmm0,xmm1,xmm1
    19d2:	c5 f9 fe c1          	vpaddd xmm0,xmm0,xmm1
    19d6:	c5 f9 7e c0          	vmovd  eax,xmm0
    19da:	c3                   	ret    
    19db:	0f 1f 44 00 00       	nop    DWORD PTR [rax+rax*1+0x0]

00000000000019e0 <x264_8_pixel_satd_16x4_internal_mmx2>:
    19e0:	0f 6e 27             	movd   mm4,DWORD PTR [rdi]
    19e3:	0f 6e 1a             	movd   mm3,DWORD PTR [rdx]
    19e6:	0f 60 e3             	punpcklbw mm4,mm3
    19e9:	0f 60 db             	punpcklbw mm3,mm3
    19ec:	0f f9 e3             	psubw  mm4,mm3
    19ef:	0f 6e 2c 37          	movd   mm5,DWORD PTR [rdi+rsi*1]
    19f3:	0f 6e 1c 0a          	movd   mm3,DWORD PTR [rdx+rcx*1]
    19f7:	0f 60 eb             	punpcklbw mm5,mm3
    19fa:	0f 60 db             	punpcklbw mm3,mm3
    19fd:	0f f9 eb             	psubw  mm5,mm3
    1a00:	0f 6e 34 77          	movd   mm6,DWORD PTR [rdi+rsi*2]
    1a04:	0f 6e 1c 4a          	movd   mm3,DWORD PTR [rdx+rcx*2]
    1a08:	0f 60 f3             	punpcklbw mm6,mm3
    1a0b:	0f 60 db             	punpcklbw mm3,mm3
    1a0e:	0f f9 f3             	psubw  mm6,mm3
    1a11:	42 0f 6e 3c 07       	movd   mm7,DWORD PTR [rdi+r8*1]
    1a16:	42 0f 6e 1c 0a       	movd   mm3,DWORD PTR [rdx+r9*1]
    1a1b:	0f 60 fb             	punpcklbw mm7,mm3
    1a1e:	0f 60 db             	punpcklbw mm3,mm3
    1a21:	0f f9 fb             	psubw  mm7,mm3
    1a24:	0f 6f dc             	movq   mm3,mm4
    1a27:	0f fd e5             	paddw  mm4,mm5
    1a2a:	0f f9 eb             	psubw  mm5,mm3
    1a2d:	0f 6f de             	movq   mm3,mm6
    1a30:	0f fd f7             	paddw  mm6,mm7
    1a33:	0f f9 fb             	psubw  mm7,mm3
    1a36:	0f 6f dc             	movq   mm3,mm4
    1a39:	0f 61 e5             	punpcklwd mm4,mm5
    1a3c:	0f 69 dd             	punpckhwd mm3,mm5
    1a3f:	0f 6f ec             	movq   mm5,mm4
    1a42:	0f fd e3             	paddw  mm4,mm3
    1a45:	0f f9 dd             	psubw  mm3,mm5
    1a48:	0f 6f ee             	movq   mm5,mm6
    1a4b:	0f 61 f7             	punpcklwd mm6,mm7
    1a4e:	0f 69 ef             	punpckhwd mm5,mm7
    1a51:	0f 6f fe             	movq   mm7,mm6
    1a54:	0f fd f5             	paddw  mm6,mm5
    1a57:	0f f9 ef             	psubw  mm5,mm7
    1a5a:	0f 6f fc             	movq   mm7,mm4
    1a5d:	0f fd e6             	paddw  mm4,mm6
    1a60:	0f f9 f7             	psubw  mm6,mm7
    1a63:	0f 6f fb             	movq   mm7,mm3
    1a66:	0f fd dd             	paddw  mm3,mm5
    1a69:	0f f9 ef             	psubw  mm5,mm7
    1a6c:	0f 6f fc             	movq   mm7,mm4
    1a6f:	0f 62 e6             	punpckldq mm4,mm6
    1a72:	0f 6a fe             	punpckhdq mm7,mm6
    1a75:	0f ef f6             	pxor   mm6,mm6
    1a78:	0f ef d2             	pxor   mm2,mm2
    1a7b:	0f f9 f4             	psubw  mm6,mm4
    1a7e:	0f f9 d7             	psubw  mm2,mm7
    1a81:	0f ee e6             	pmaxsw mm4,mm6
    1a84:	0f ee fa             	pmaxsw mm7,mm2
    1a87:	0f ee e7             	pmaxsw mm4,mm7
    1a8a:	0f 6f f3             	movq   mm6,mm3
    1a8d:	0f 62 dd             	punpckldq mm3,mm5
    1a90:	0f 6a f5             	punpckhdq mm6,mm5
    1a93:	0f ef ed             	pxor   mm5,mm5
    1a96:	0f ef d2             	pxor   mm2,mm2
    1a99:	0f f9 eb             	psubw  mm5,mm3
    1a9c:	0f f9 d6             	psubw  mm2,mm6
    1a9f:	0f ee dd             	pmaxsw mm3,mm5
    1aa2:	0f ee f2             	pmaxsw mm6,mm2
    1aa5:	0f ee de             	pmaxsw mm3,mm6
    1aa8:	0f fd e3             	paddw  mm4,mm3
    1aab:	0f 6e 57 04          	movd   mm2,DWORD PTR [rdi+0x4]
    1aaf:	0f 6e 6a 04          	movd   mm5,DWORD PTR [rdx+0x4]
    1ab3:	0f 60 d5             	punpcklbw mm2,mm5
    1ab6:	0f 60 ed             	punpcklbw mm5,mm5
    1ab9:	0f f9 d5             	psubw  mm2,mm5
    1abc:	0f 6e 7c 37 04       	movd   mm7,DWORD PTR [rdi+rsi*1+0x4]
    1ac1:	0f 6e 6c 0a 04       	movd   mm5,DWORD PTR [rdx+rcx*1+0x4]
    1ac6:	0f 60 fd             	punpcklbw mm7,mm5
    1ac9:	0f 60 ed             	punpcklbw mm5,mm5
    1acc:	0f f9 fd             	psubw  mm7,mm5
    1acf:	0f 6e 5c 77 04       	movd   mm3,DWORD PTR [rdi+rsi*2+0x4]
    1ad4:	0f 6e 6c 4a 04       	movd   mm5,DWORD PTR [rdx+rcx*2+0x4]
    1ad9:	0f 60 dd             	punpcklbw mm3,mm5
    1adc:	0f 60 ed             	punpcklbw mm5,mm5
    1adf:	0f f9 dd             	psubw  mm3,mm5
    1ae2:	42 0f 6e 74 07 04    	movd   mm6,DWORD PTR [rdi+r8*1+0x4]
    1ae8:	42 0f 6e 6c 0a 04    	movd   mm5,DWORD PTR [rdx+r9*1+0x4]
    1aee:	0f 60 f5             	punpcklbw mm6,mm5
    1af1:	0f 60 ed             	punpcklbw mm5,mm5
    1af4:	0f f9 f5             	psubw  mm6,mm5
    1af7:	0f 6f ea             	movq   mm5,mm2
    1afa:	0f fd d7             	paddw  mm2,mm7
    1afd:	0f f9 fd             	psubw  mm7,mm5
    1b00:	0f 6f eb             	movq   mm5,mm3
    1b03:	0f fd de             	paddw  mm3,mm6
    1b06:	0f f9 f5             	psubw  mm6,mm5
    1b09:	0f 6f ea             	movq   mm5,mm2
    1b0c:	0f 61 d7             	punpcklwd mm2,mm7
    1b0f:	0f 69 ef             	punpckhwd mm5,mm7
    1b12:	0f 6f fa             	movq   mm7,mm2
    1b15:	0f fd d5             	paddw  mm2,mm5
    1b18:	0f f9 ef             	psubw  mm5,mm7
    1b1b:	0f 6f fb             	movq   mm7,mm3
    1b1e:	0f 61 de             	punpcklwd mm3,mm6
    1b21:	0f 69 fe             	punpckhwd mm7,mm6
    1b24:	0f 6f f3             	movq   mm6,mm3
    1b27:	0f fd df             	paddw  mm3,mm7
    1b2a:	0f f9 fe             	psubw  mm7,mm6
    1b2d:	0f 6f f2             	movq   mm6,mm2
    1b30:	0f fd d3             	paddw  mm2,mm3
    1b33:	0f f9 de             	psubw  mm3,mm6
    1b36:	0f 6f f5             	movq   mm6,mm5
    1b39:	0f fd ef             	paddw  mm5,mm7
    1b3c:	0f f9 fe             	psubw  mm7,mm6
    1b3f:	0f 6f f2             	movq   mm6,mm2
    1b42:	0f 62 d3             	punpckldq mm2,mm3
    1b45:	0f 6a f3             	punpckhdq mm6,mm3
    1b48:	0f ef db             	pxor   mm3,mm3
    1b4b:	0f ef c9             	pxor   mm1,mm1
    1b4e:	0f f9 da             	psubw  mm3,mm2
    1b51:	0f f9 ce             	psubw  mm1,mm6
    1b54:	0f ee d3             	pmaxsw mm2,mm3
    1b57:	0f ee f1             	pmaxsw mm6,mm1
    1b5a:	0f ee d6             	pmaxsw mm2,mm6
    1b5d:	0f 6f dd             	movq   mm3,mm5
    1b60:	0f 62 ef             	punpckldq mm5,mm7
    1b63:	0f 6a df             	punpckhdq mm3,mm7
    1b66:	0f ef ff             	pxor   mm7,mm7
    1b69:	0f ef c9             	pxor   mm1,mm1
    1b6c:	0f f9 fd             	psubw  mm7,mm5
    1b6f:	0f f9 cb             	psubw  mm1,mm3
    1b72:	0f ee ef             	pmaxsw mm5,mm7
    1b75:	0f ee d9             	pmaxsw mm3,mm1
    1b78:	0f ee eb             	pmaxsw mm5,mm3
    1b7b:	0f fd d5             	paddw  mm2,mm5
    1b7e:	0f fd c4             	paddw  mm0,mm4
    1b81:	0f 6e 4f 08          	movd   mm1,DWORD PTR [rdi+0x8]
    1b85:	0f 6e 7a 08          	movd   mm7,DWORD PTR [rdx+0x8]
    1b89:	0f 60 cf             	punpcklbw mm1,mm7
    1b8c:	0f 60 ff             	punpcklbw mm7,mm7
    1b8f:	0f f9 cf             	psubw  mm1,mm7
    1b92:	0f 6e 74 37 08       	movd   mm6,DWORD PTR [rdi+rsi*1+0x8]
    1b97:	0f 6e 7c 0a 08       	movd   mm7,DWORD PTR [rdx+rcx*1+0x8]
    1b9c:	0f 60 f7             	punpcklbw mm6,mm7
    1b9f:	0f 60 ff             	punpcklbw mm7,mm7
    1ba2:	0f f9 f7             	psubw  mm6,mm7
    1ba5:	0f 6e 6c 77 08       	movd   mm5,DWORD PTR [rdi+rsi*2+0x8]
    1baa:	0f 6e 7c 4a 08       	movd   mm7,DWORD PTR [rdx+rcx*2+0x8]
    1baf:	0f 60 ef             	punpcklbw mm5,mm7
    1bb2:	0f 60 ff             	punpcklbw mm7,mm7
    1bb5:	0f f9 ef             	psubw  mm5,mm7
    1bb8:	42 0f 6e 5c 07 08    	movd   mm3,DWORD PTR [rdi+r8*1+0x8]
    1bbe:	42 0f 6e 7c 0a 08    	movd   mm7,DWORD PTR [rdx+r9*1+0x8]
    1bc4:	0f 60 df             	punpcklbw mm3,mm7
    1bc7:	0f 60 ff             	punpcklbw mm7,mm7
    1bca:	0f f9 df             	psubw  mm3,mm7
    1bcd:	0f 6f f9             	movq   mm7,mm1
    1bd0:	0f fd ce             	paddw  mm1,mm6
    1bd3:	0f f9 f7             	psubw  mm6,mm7
    1bd6:	0f 6f fd             	movq   mm7,mm5
    1bd9:	0f fd eb             	paddw  mm5,mm3
    1bdc:	0f f9 df             	psubw  mm3,mm7
    1bdf:	0f 6f f9             	movq   mm7,mm1
    1be2:	0f 61 ce             	punpcklwd mm1,mm6
    1be5:	0f 69 fe             	punpckhwd mm7,mm6
    1be8:	0f 6f f1             	movq   mm6,mm1
    1beb:	0f fd cf             	paddw  mm1,mm7
    1bee:	0f f9 fe             	psubw  mm7,mm6
    1bf1:	0f 6f f5             	movq   mm6,mm5
    1bf4:	0f 61 eb             	punpcklwd mm5,mm3
    1bf7:	0f 69 f3             	punpckhwd mm6,mm3
    1bfa:	0f 6f dd             	movq   mm3,mm5
    1bfd:	0f fd ee             	paddw  mm5,mm6
    1c00:	0f f9 f3             	psubw  mm6,mm3
    1c03:	0f 6f d9             	movq   mm3,mm1
    1c06:	0f fd cd             	paddw  mm1,mm5
    1c09:	0f f9 eb             	psubw  mm5,mm3
    1c0c:	0f 6f df             	movq   mm3,mm7
    1c0f:	0f fd fe             	paddw  mm7,mm6
    1c12:	0f f9 f3             	psubw  mm6,mm3
    1c15:	0f 6f d9             	movq   mm3,mm1
    1c18:	0f 62 cd             	punpckldq mm1,mm5
    1c1b:	0f 6a dd             	punpckhdq mm3,mm5
    1c1e:	0f ef ed             	pxor   mm5,mm5
    1c21:	0f ef e4             	pxor   mm4,mm4
    1c24:	0f f9 e9             	psubw  mm5,mm1
    1c27:	0f f9 e3             	psubw  mm4,mm3
    1c2a:	0f ee cd             	pmaxsw mm1,mm5
    1c2d:	0f ee dc             	pmaxsw mm3,mm4
    1c30:	0f ee cb             	pmaxsw mm1,mm3
    1c33:	0f 6f ef             	movq   mm5,mm7
    1c36:	0f 62 fe             	punpckldq mm7,mm6
    1c39:	0f 6a ee             	punpckhdq mm5,mm6
    1c3c:	0f ef f6             	pxor   mm6,mm6
    1c3f:	0f ef e4             	pxor   mm4,mm4
    1c42:	0f f9 f7             	psubw  mm6,mm7
    1c45:	0f f9 e5             	psubw  mm4,mm5
    1c48:	0f ee fe             	pmaxsw mm7,mm6
    1c4b:	0f ee ec             	pmaxsw mm5,mm4
    1c4e:	0f ee fd             	pmaxsw mm7,mm5
    1c51:	0f fd cf             	paddw  mm1,mm7
    1c54:	0f fd c2             	paddw  mm0,mm2
    1c57:	0f 6e 67 0c          	movd   mm4,DWORD PTR [rdi+0xc]
    1c5b:	0f 6e 72 0c          	movd   mm6,DWORD PTR [rdx+0xc]
    1c5f:	0f 60 e6             	punpcklbw mm4,mm6
    1c62:	0f 60 f6             	punpcklbw mm6,mm6
    1c65:	0f f9 e6             	psubw  mm4,mm6
    1c68:	0f 6e 5c 37 0c       	movd   mm3,DWORD PTR [rdi+rsi*1+0xc]
    1c6d:	0f 6e 74 0a 0c       	movd   mm6,DWORD PTR [rdx+rcx*1+0xc]
    1c72:	0f 60 de             	punpcklbw mm3,mm6
    1c75:	0f 60 f6             	punpcklbw mm6,mm6
    1c78:	0f f9 de             	psubw  mm3,mm6
    1c7b:	0f 6e 7c 77 0c       	movd   mm7,DWORD PTR [rdi+rsi*2+0xc]
    1c80:	0f 6e 74 4a 0c       	movd   mm6,DWORD PTR [rdx+rcx*2+0xc]
    1c85:	0f 60 fe             	punpcklbw mm7,mm6
    1c88:	0f 60 f6             	punpcklbw mm6,mm6
    1c8b:	0f f9 fe             	psubw  mm7,mm6
    1c8e:	42 0f 6e 6c 07 0c    	movd   mm5,DWORD PTR [rdi+r8*1+0xc]
    1c94:	42 0f 6e 74 0a 0c    	movd   mm6,DWORD PTR [rdx+r9*1+0xc]
    1c9a:	0f 60 ee             	punpcklbw mm5,mm6
    1c9d:	0f 60 f6             	punpcklbw mm6,mm6
    1ca0:	0f f9 ee             	psubw  mm5,mm6
    1ca3:	0f 6f f4             	movq   mm6,mm4
    1ca6:	0f fd e3             	paddw  mm4,mm3
    1ca9:	0f f9 de             	psubw  mm3,mm6
    1cac:	0f 6f f7             	movq   mm6,mm7
    1caf:	0f fd fd             	paddw  mm7,mm5
    1cb2:	0f f9 ee             	psubw  mm5,mm6
    1cb5:	0f 6f f4             	movq   mm6,mm4
    1cb8:	0f 61 e3             	punpcklwd mm4,mm3
    1cbb:	0f 69 f3             	punpckhwd mm6,mm3
    1cbe:	0f 6f dc             	movq   mm3,mm4
    1cc1:	0f fd e6             	paddw  mm4,mm6
    1cc4:	0f f9 f3             	psubw  mm6,mm3
    1cc7:	0f 6f df             	movq   mm3,mm7
    1cca:	0f 61 fd             	punpcklwd mm7,mm5
    1ccd:	0f 69 dd             	punpckhwd mm3,mm5
    1cd0:	0f 6f ef             	movq   mm5,mm7
    1cd3:	0f fd fb             	paddw  mm7,mm3
    1cd6:	0f f9 dd             	psubw  mm3,mm5
    1cd9:	0f 6f ec             	movq   mm5,mm4
    1cdc:	0f fd e7             	paddw  mm4,mm7
    1cdf:	0f f9 fd             	psubw  mm7,mm5
    1ce2:	0f 6f ee             	movq   mm5,mm6
    1ce5:	0f fd f3             	paddw  mm6,mm3
    1ce8:	0f f9 dd             	psubw  mm3,mm5
    1ceb:	0f 6f ec             	movq   mm5,mm4
    1cee:	0f 62 e7             	punpckldq mm4,mm7
    1cf1:	0f 6a ef             	punpckhdq mm5,mm7
    1cf4:	0f ef ff             	pxor   mm7,mm7
    1cf7:	0f ef d2             	pxor   mm2,mm2
    1cfa:	0f f9 fc             	psubw  mm7,mm4
    1cfd:	0f f9 d5             	psubw  mm2,mm5
    1d00:	0f ee e7             	pmaxsw mm4,mm7
    1d03:	0f ee ea             	pmaxsw mm5,mm2
    1d06:	0f ee e5             	pmaxsw mm4,mm5
    1d09:	0f 6f fe             	movq   mm7,mm6
    1d0c:	0f 62 f3             	punpckldq mm6,mm3
    1d0f:	0f 6a fb             	punpckhdq mm7,mm3
    1d12:	0f ef db             	pxor   mm3,mm3
    1d15:	0f ef d2             	pxor   mm2,mm2
    1d18:	0f f9 de             	psubw  mm3,mm6
    1d1b:	0f f9 d7             	psubw  mm2,mm7
    1d1e:	0f ee f3             	pmaxsw mm6,mm3
    1d21:	0f ee fa             	pmaxsw mm7,mm2
    1d24:	0f ee f7             	pmaxsw mm6,mm7
    1d27:	0f fd e6             	paddw  mm4,mm6
    1d2a:	0f fd c1             	paddw  mm0,mm1
    1d2d:	0f fd c4             	paddw  mm0,mm4
    1d30:	c3                   	ret    
    1d31:	0f 1f 84 00 00 00 00 	nop    DWORD PTR [rax+rax*1+0x0]
    1d38:	00 
    1d39:	0f 1f 80 00 00 00 00 	nop    DWORD PTR [rax+0x0]

0000000000001d40 <x264_8_pixel_satd_8x8_internal_mmx2>:
    1d40:	0f 6e 27             	movd   mm4,DWORD PTR [rdi]
    1d43:	0f 6e 1a             	movd   mm3,DWORD PTR [rdx]
    1d46:	0f 60 e3             	punpcklbw mm4,mm3
    1d49:	0f 60 db             	punpcklbw mm3,mm3
    1d4c:	0f f9 e3             	psubw  mm4,mm3
    1d4f:	0f 6e 2c 37          	movd   mm5,DWORD PTR [rdi+rsi*1]
    1d53:	0f 6e 1c 0a          	movd   mm3,DWORD PTR [rdx+rcx*1]
    1d57:	0f 60 eb             	punpcklbw mm5,mm3
    1d5a:	0f 60 db             	punpcklbw mm3,mm3
    1d5d:	0f f9 eb             	psubw  mm5,mm3
    1d60:	0f 6e 34 77          	movd   mm6,DWORD PTR [rdi+rsi*2]
    1d64:	0f 6e 1c 4a          	movd   mm3,DWORD PTR [rdx+rcx*2]
    1d68:	0f 60 f3             	punpcklbw mm6,mm3
    1d6b:	0f 60 db             	punpcklbw mm3,mm3
    1d6e:	0f f9 f3             	psubw  mm6,mm3
    1d71:	42 0f 6e 3c 07       	movd   mm7,DWORD PTR [rdi+r8*1]
    1d76:	42 0f 6e 1c 0a       	movd   mm3,DWORD PTR [rdx+r9*1]
    1d7b:	0f 60 fb             	punpcklbw mm7,mm3
    1d7e:	0f 60 db             	punpcklbw mm3,mm3
    1d81:	0f f9 fb             	psubw  mm7,mm3
    1d84:	0f 6f dc             	movq   mm3,mm4
    1d87:	0f fd e5             	paddw  mm4,mm5
    1d8a:	0f f9 eb             	psubw  mm5,mm3
    1d8d:	0f 6f de             	movq   mm3,mm6
    1d90:	0f fd f7             	paddw  mm6,mm7
    1d93:	0f f9 fb             	psubw  mm7,mm3
    1d96:	0f 6f dc             	movq   mm3,mm4
    1d99:	0f 61 e5             	punpcklwd mm4,mm5
    1d9c:	0f 69 dd             	punpckhwd mm3,mm5
    1d9f:	0f 6f ec             	movq   mm5,mm4
    1da2:	0f fd e3             	paddw  mm4,mm3
    1da5:	0f f9 dd             	psubw  mm3,mm5
    1da8:	0f 6f ee             	movq   mm5,mm6
    1dab:	0f 61 f7             	punpcklwd mm6,mm7
    1dae:	0f 69 ef             	punpckhwd mm5,mm7
    1db1:	0f 6f fe             	movq   mm7,mm6
    1db4:	0f fd f5             	paddw  mm6,mm5
    1db7:	0f f9 ef             	psubw  mm5,mm7
    1dba:	0f 6f fc             	movq   mm7,mm4
    1dbd:	0f fd e6             	paddw  mm4,mm6
    1dc0:	0f f9 f7             	psubw  mm6,mm7
    1dc3:	0f 6f fb             	movq   mm7,mm3
    1dc6:	0f fd dd             	paddw  mm3,mm5
    1dc9:	0f f9 ef             	psubw  mm5,mm7
    1dcc:	0f 6f fc             	movq   mm7,mm4
    1dcf:	0f 62 e6             	punpckldq mm4,mm6
    1dd2:	0f 6a fe             	punpckhdq mm7,mm6
    1dd5:	0f ef f6             	pxor   mm6,mm6
    1dd8:	0f ef d2             	pxor   mm2,mm2
    1ddb:	0f f9 f4             	psubw  mm6,mm4
    1dde:	0f f9 d7             	psubw  mm2,mm7
    1de1:	0f ee e6             	pmaxsw mm4,mm6
    1de4:	0f ee fa             	pmaxsw mm7,mm2
    1de7:	0f ee e7             	pmaxsw mm4,mm7
    1dea:	0f 6f f3             	movq   mm6,mm3
    1ded:	0f 62 dd             	punpckldq mm3,mm5
    1df0:	0f 6a f5             	punpckhdq mm6,mm5
    1df3:	0f ef ed             	pxor   mm5,mm5
    1df6:	0f ef d2             	pxor   mm2,mm2
    1df9:	0f f9 eb             	psubw  mm5,mm3
    1dfc:	0f f9 d6             	psubw  mm2,mm6
    1dff:	0f ee dd             	pmaxsw mm3,mm5
    1e02:	0f ee f2             	pmaxsw mm6,mm2
    1e05:	0f ee de             	pmaxsw mm3,mm6
    1e08:	0f fd e3             	paddw  mm4,mm3
    1e0b:	0f 6e 57 04          	movd   mm2,DWORD PTR [rdi+0x4]
    1e0f:	0f 6e 6a 04          	movd   mm5,DWORD PTR [rdx+0x4]
    1e13:	0f 60 d5             	punpcklbw mm2,mm5
    1e16:	0f 60 ed             	punpcklbw mm5,mm5
    1e19:	0f f9 d5             	psubw  mm2,mm5
    1e1c:	0f 6e 7c 37 04       	movd   mm7,DWORD PTR [rdi+rsi*1+0x4]
    1e21:	0f 6e 6c 0a 04       	movd   mm5,DWORD PTR [rdx+rcx*1+0x4]
    1e26:	0f 60 fd             	punpcklbw mm7,mm5
    1e29:	0f 60 ed             	punpcklbw mm5,mm5
    1e2c:	0f f9 fd             	psubw  mm7,mm5
    1e2f:	0f 6e 5c 77 04       	movd   mm3,DWORD PTR [rdi+rsi*2+0x4]
    1e34:	0f 6e 6c 4a 04       	movd   mm5,DWORD PTR [rdx+rcx*2+0x4]
    1e39:	0f 60 dd             	punpcklbw mm3,mm5
    1e3c:	0f 60 ed             	punpcklbw mm5,mm5
    1e3f:	0f f9 dd             	psubw  mm3,mm5
    1e42:	42 0f 6e 74 07 04    	movd   mm6,DWORD PTR [rdi+r8*1+0x4]
    1e48:	42 0f 6e 6c 0a 04    	movd   mm5,DWORD PTR [rdx+r9*1+0x4]
    1e4e:	0f 60 f5             	punpcklbw mm6,mm5
    1e51:	0f 60 ed             	punpcklbw mm5,mm5
    1e54:	0f f9 f5             	psubw  mm6,mm5
    1e57:	48 8d 3c b7          	lea    rdi,[rdi+rsi*4]
    1e5b:	48 8d 14 8a          	lea    rdx,[rdx+rcx*4]
    1e5f:	0f 6f ea             	movq   mm5,mm2
    1e62:	0f fd d7             	paddw  mm2,mm7
    1e65:	0f f9 fd             	psubw  mm7,mm5
    1e68:	0f 6f eb             	movq   mm5,mm3
    1e6b:	0f fd de             	paddw  mm3,mm6
    1e6e:	0f f9 f5             	psubw  mm6,mm5
    1e71:	0f 6f ea             	movq   mm5,mm2
    1e74:	0f 61 d7             	punpcklwd mm2,mm7
    1e77:	0f 69 ef             	punpckhwd mm5,mm7
    1e7a:	0f 6f fa             	movq   mm7,mm2
    1e7d:	0f fd d5             	paddw  mm2,mm5
    1e80:	0f f9 ef             	psubw  mm5,mm7
    1e83:	0f 6f fb             	movq   mm7,mm3
    1e86:	0f 61 de             	punpcklwd mm3,mm6
    1e89:	0f 69 fe             	punpckhwd mm7,mm6
    1e8c:	0f 6f f3             	movq   mm6,mm3
    1e8f:	0f fd df             	paddw  mm3,mm7
    1e92:	0f f9 fe             	psubw  mm7,mm6
    1e95:	0f 6f f2             	movq   mm6,mm2
    1e98:	0f fd d3             	paddw  mm2,mm3
    1e9b:	0f f9 de             	psubw  mm3,mm6
    1e9e:	0f 6f f5             	movq   mm6,mm5
    1ea1:	0f fd ef             	paddw  mm5,mm7
    1ea4:	0f f9 fe             	psubw  mm7,mm6
    1ea7:	0f 6f f2             	movq   mm6,mm2
    1eaa:	0f 62 d3             	punpckldq mm2,mm3
    1ead:	0f 6a f3             	punpckhdq mm6,mm3
    1eb0:	0f ef db             	pxor   mm3,mm3
    1eb3:	0f ef c9             	pxor   mm1,mm1
    1eb6:	0f f9 da             	psubw  mm3,mm2
    1eb9:	0f f9 ce             	psubw  mm1,mm6
    1ebc:	0f ee d3             	pmaxsw mm2,mm3
    1ebf:	0f ee f1             	pmaxsw mm6,mm1
    1ec2:	0f ee d6             	pmaxsw mm2,mm6
    1ec5:	0f 6f dd             	movq   mm3,mm5
    1ec8:	0f 62 ef             	punpckldq mm5,mm7
    1ecb:	0f 6a df             	punpckhdq mm3,mm7
    1ece:	0f ef ff             	pxor   mm7,mm7
    1ed1:	0f ef c9             	pxor   mm1,mm1
    1ed4:	0f f9 fd             	psubw  mm7,mm5
    1ed7:	0f f9 cb             	psubw  mm1,mm3
    1eda:	0f ee ef             	pmaxsw mm5,mm7
    1edd:	0f ee d9             	pmaxsw mm3,mm1
    1ee0:	0f ee eb             	pmaxsw mm5,mm3
    1ee3:	0f fd d5             	paddw  mm2,mm5
    1ee6:	0f fd c4             	paddw  mm0,mm4
    1ee9:	0f fd c2             	paddw  mm0,mm2
    1eec:	0f 6e 0f             	movd   mm1,DWORD PTR [rdi]
    1eef:	0f 6e 3a             	movd   mm7,DWORD PTR [rdx]
    1ef2:	0f 60 cf             	punpcklbw mm1,mm7
    1ef5:	0f 60 ff             	punpcklbw mm7,mm7
    1ef8:	0f f9 cf             	psubw  mm1,mm7
    1efb:	0f 6e 34 37          	movd   mm6,DWORD PTR [rdi+rsi*1]
    1eff:	0f 6e 3c 0a          	movd   mm7,DWORD PTR [rdx+rcx*1]
    1f03:	0f 60 f7             	punpcklbw mm6,mm7
    1f06:	0f 60 ff             	punpcklbw mm7,mm7
    1f09:	0f f9 f7             	psubw  mm6,mm7
    1f0c:	0f 6e 2c 77          	movd   mm5,DWORD PTR [rdi+rsi*2]
    1f10:	0f 6e 3c 4a          	movd   mm7,DWORD PTR [rdx+rcx*2]
    1f14:	0f 60 ef             	punpcklbw mm5,mm7
    1f17:	0f 60 ff             	punpcklbw mm7,mm7
    1f1a:	0f f9 ef             	psubw  mm5,mm7
    1f1d:	42 0f 6e 1c 07       	movd   mm3,DWORD PTR [rdi+r8*1]
    1f22:	42 0f 6e 3c 0a       	movd   mm7,DWORD PTR [rdx+r9*1]
    1f27:	0f 60 df             	punpcklbw mm3,mm7
    1f2a:	0f 60 ff             	punpcklbw mm7,mm7
    1f2d:	0f f9 df             	psubw  mm3,mm7
    1f30:	0f 6f f9             	movq   mm7,mm1
    1f33:	0f fd ce             	paddw  mm1,mm6
    1f36:	0f f9 f7             	psubw  mm6,mm7
    1f39:	0f 6f fd             	movq   mm7,mm5
    1f3c:	0f fd eb             	paddw  mm5,mm3
    1f3f:	0f f9 df             	psubw  mm3,mm7
    1f42:	0f 6f f9             	movq   mm7,mm1
    1f45:	0f 61 ce             	punpcklwd mm1,mm6
    1f48:	0f 69 fe             	punpckhwd mm7,mm6
    1f4b:	0f 6f f1             	movq   mm6,mm1
    1f4e:	0f fd cf             	paddw  mm1,mm7
    1f51:	0f f9 fe             	psubw  mm7,mm6
    1f54:	0f 6f f5             	movq   mm6,mm5
    1f57:	0f 61 eb             	punpcklwd mm5,mm3
    1f5a:	0f 69 f3             	punpckhwd mm6,mm3
    1f5d:	0f 6f dd             	movq   mm3,mm5
    1f60:	0f fd ee             	paddw  mm5,mm6
    1f63:	0f f9 f3             	psubw  mm6,mm3
    1f66:	0f 6f d9             	movq   mm3,mm1
    1f69:	0f fd cd             	paddw  mm1,mm5
    1f6c:	0f f9 eb             	psubw  mm5,mm3
    1f6f:	0f 6f df             	movq   mm3,mm7
    1f72:	0f fd fe             	paddw  mm7,mm6
    1f75:	0f f9 f3             	psubw  mm6,mm3
    1f78:	0f 6f d9             	movq   mm3,mm1
    1f7b:	0f 62 cd             	punpckldq mm1,mm5
    1f7e:	0f 6a dd             	punpckhdq mm3,mm5
    1f81:	0f ef ed             	pxor   mm5,mm5
    1f84:	0f ef e4             	pxor   mm4,mm4
    1f87:	0f f9 e9             	psubw  mm5,mm1
    1f8a:	0f f9 e3             	psubw  mm4,mm3
    1f8d:	0f ee cd             	pmaxsw mm1,mm5
    1f90:	0f ee dc             	pmaxsw mm3,mm4
    1f93:	0f ee cb             	pmaxsw mm1,mm3
    1f96:	0f 6f ef             	movq   mm5,mm7
    1f99:	0f 62 fe             	punpckldq mm7,mm6
    1f9c:	0f 6a ee             	punpckhdq mm5,mm6
    1f9f:	0f ef f6             	pxor   mm6,mm6
    1fa2:	0f ef e4             	pxor   mm4,mm4
    1fa5:	0f f9 f7             	psubw  mm6,mm7
    1fa8:	0f f9 e5             	psubw  mm4,mm5
    1fab:	0f ee fe             	pmaxsw mm7,mm6
    1fae:	0f ee ec             	pmaxsw mm5,mm4
    1fb1:	0f ee fd             	pmaxsw mm7,mm5
    1fb4:	0f fd cf             	paddw  mm1,mm7
    1fb7:	0f 6e 67 04          	movd   mm4,DWORD PTR [rdi+0x4]
    1fbb:	0f 6e 72 04          	movd   mm6,DWORD PTR [rdx+0x4]
    1fbf:	0f 60 e6             	punpcklbw mm4,mm6
    1fc2:	0f 60 f6             	punpcklbw mm6,mm6
    1fc5:	0f f9 e6             	psubw  mm4,mm6
    1fc8:	0f 6e 5c 37 04       	movd   mm3,DWORD PTR [rdi+rsi*1+0x4]
    1fcd:	0f 6e 74 0a 04       	movd   mm6,DWORD PTR [rdx+rcx*1+0x4]
    1fd2:	0f 60 de             	punpcklbw mm3,mm6
    1fd5:	0f 60 f6             	punpcklbw mm6,mm6
    1fd8:	0f f9 de             	psubw  mm3,mm6
    1fdb:	0f 6e 7c 77 04       	movd   mm7,DWORD PTR [rdi+rsi*2+0x4]
    1fe0:	0f 6e 74 4a 04       	movd   mm6,DWORD PTR [rdx+rcx*2+0x4]
    1fe5:	0f 60 fe             	punpcklbw mm7,mm6
    1fe8:	0f 60 f6             	punpcklbw mm6,mm6
    1feb:	0f f9 fe             	psubw  mm7,mm6
    1fee:	42 0f 6e 6c 07 04    	movd   mm5,DWORD PTR [rdi+r8*1+0x4]
    1ff4:	42 0f 6e 74 0a 04    	movd   mm6,DWORD PTR [rdx+r9*1+0x4]
    1ffa:	0f 60 ee             	punpcklbw mm5,mm6
    1ffd:	0f 60 f6             	punpcklbw mm6,mm6
    2000:	0f f9 ee             	psubw  mm5,mm6
    2003:	0f 6f f4             	movq   mm6,mm4
    2006:	0f fd e3             	paddw  mm4,mm3
    2009:	0f f9 de             	psubw  mm3,mm6
    200c:	0f 6f f7             	movq   mm6,mm7
    200f:	0f fd fd             	paddw  mm7,mm5
    2012:	0f f9 ee             	psubw  mm5,mm6
    2015:	0f 6f f4             	movq   mm6,mm4
    2018:	0f 61 e3             	punpcklwd mm4,mm3
    201b:	0f 69 f3             	punpckhwd mm6,mm3
    201e:	0f 6f dc             	movq   mm3,mm4
    2021:	0f fd e6             	paddw  mm4,mm6
    2024:	0f f9 f3             	psubw  mm6,mm3
    2027:	0f 6f df             	movq   mm3,mm7
    202a:	0f 61 fd             	punpcklwd mm7,mm5
    202d:	0f 69 dd             	punpckhwd mm3,mm5
    2030:	0f 6f ef             	movq   mm5,mm7
    2033:	0f fd fb             	paddw  mm7,mm3
    2036:	0f f9 dd             	psubw  mm3,mm5
    2039:	0f 6f ec             	movq   mm5,mm4
    203c:	0f fd e7             	paddw  mm4,mm7
    203f:	0f f9 fd             	psubw  mm7,mm5
    2042:	0f 6f ee             	movq   mm5,mm6
    2045:	0f fd f3             	paddw  mm6,mm3
    2048:	0f f9 dd             	psubw  mm3,mm5
    204b:	0f 6f ec             	movq   mm5,mm4
    204e:	0f 62 e7             	punpckldq mm4,mm7
    2051:	0f 6a ef             	punpckhdq mm5,mm7
    2054:	0f ef ff             	pxor   mm7,mm7
    2057:	0f ef d2             	pxor   mm2,mm2
    205a:	0f f9 fc             	psubw  mm7,mm4
    205d:	0f f9 d5             	psubw  mm2,mm5
    2060:	0f ee e7             	pmaxsw mm4,mm7
    2063:	0f ee ea             	pmaxsw mm5,mm2
    2066:	0f ee e5             	pmaxsw mm4,mm5
    2069:	0f 6f fe             	movq   mm7,mm6
    206c:	0f 62 f3             	punpckldq mm6,mm3
    206f:	0f 6a fb             	punpckhdq mm7,mm3
    2072:	0f ef db             	pxor   mm3,mm3
    2075:	0f ef d2             	pxor   mm2,mm2
    2078:	0f f9 de             	psubw  mm3,mm6
    207b:	0f f9 d7             	psubw  mm2,mm7
    207e:	0f ee f3             	pmaxsw mm6,mm3
    2081:	0f ee fa             	pmaxsw mm7,mm2
    2084:	0f ee f7             	pmaxsw mm6,mm7
    2087:	0f fd e6             	paddw  mm4,mm6
    208a:	0f fd c1             	paddw  mm0,mm1
    208d:	0f fd c4             	paddw  mm0,mm4
    2090:	c3                   	ret    
    2091:	0f 1f 84 00 00 00 00 	nop    DWORD PTR [rax+rax*1+0x0]
    2098:	00 
    2099:	0f 1f 80 00 00 00 00 	nop    DWORD PTR [rax+0x0]

00000000000020a0 <x264_8_pixel_satd_16x16_mmx2>:
    20a0:	4c 8d 04 76          	lea    r8,[rsi+rsi*2]
    20a4:	4c 8d 0c 49          	lea    r9,[rcx+rcx*2]
    20a8:	0f ef c0             	pxor   mm0,mm0
    20ab:	e8 30 f9 ff ff       	call   19e0 <x264_8_pixel_satd_16x4_internal_mmx2>
    20b0:	48 8d 3c b7          	lea    rdi,[rdi+rsi*4]
    20b4:	48 8d 14 8a          	lea    rdx,[rdx+rcx*4]
    20b8:	e8 23 f9 ff ff       	call   19e0 <x264_8_pixel_satd_16x4_internal_mmx2>
    20bd:	48 8d 3c b7          	lea    rdi,[rdi+rsi*4]
    20c1:	48 8d 14 8a          	lea    rdx,[rdx+rcx*4]
    20c5:	e8 16 f9 ff ff       	call   19e0 <x264_8_pixel_satd_16x4_internal_mmx2>
    20ca:	48 8d 3c b7          	lea    rdi,[rdi+rsi*4]
    20ce:	48 8d 14 8a          	lea    rdx,[rdx+rcx*4]
    20d2:	e8 09 f9 ff ff       	call   19e0 <x264_8_pixel_satd_16x4_internal_mmx2>
    20d7:	0f 6f c8             	movq   mm1,mm0
    20da:	0f 72 d1 10          	psrld  mm1,0x10
    20de:	0f 72 f0 10          	pslld  mm0,0x10
    20e2:	0f 72 d0 10          	psrld  mm0,0x10
    20e6:	0f fe c1             	paddd  mm0,mm1
    20e9:	0f 70 c8 4e          	pshufw mm1,mm0,0x4e
    20ed:	0f fe c1             	paddd  mm0,mm1
    20f0:	0f 7e c0             	movd   eax,mm0
    20f3:	c3                   	ret    
    20f4:	0f 1f 84 00 00 00 00 	nop    DWORD PTR [rax+rax*1+0x0]
    20fb:	00 
    20fc:	0f 1f 40 00          	nop    DWORD PTR [rax+0x0]

0000000000002100 <x264_8_pixel_satd_16x8_mmx2>:
    2100:	4c 8d 04 76          	lea    r8,[rsi+rsi*2]
    2104:	4c 8d 0c 49          	lea    r9,[rcx+rcx*2]
    2108:	0f ef c0             	pxor   mm0,mm0
    210b:	e8 d0 f8 ff ff       	call   19e0 <x264_8_pixel_satd_16x4_internal_mmx2>
    2110:	48 8d 3c b7          	lea    rdi,[rdi+rsi*4]
    2114:	48 8d 14 8a          	lea    rdx,[rdx+rcx*4]
    2118:	e8 c3 f8 ff ff       	call   19e0 <x264_8_pixel_satd_16x4_internal_mmx2>
    211d:	0f 70 c8 4e          	pshufw mm1,mm0,0x4e
    2121:	0f fd c1             	paddw  mm0,mm1
    2124:	0f 70 c8 b1          	pshufw mm1,mm0,0xb1
    2128:	0f fd c1             	paddw  mm0,mm1
    212b:	0f 7e c0             	movd   eax,mm0
    212e:	25 ff ff 00 00       	and    eax,0xffff
    2133:	c3                   	ret    
    2134:	0f 1f 84 00 00 00 00 	nop    DWORD PTR [rax+rax*1+0x0]
    213b:	00 
    213c:	0f 1f 40 00          	nop    DWORD PTR [rax+0x0]

0000000000002140 <x264_8_pixel_satd_8x16_mmx2>:
    2140:	4c 8d 04 76          	lea    r8,[rsi+rsi*2]
    2144:	4c 8d 0c 49          	lea    r9,[rcx+rcx*2]
    2148:	0f ef c0             	pxor   mm0,mm0
    214b:	e8 f0 fb ff ff       	call   1d40 <x264_8_pixel_satd_8x8_internal_mmx2>
    2150:	48 8d 3c b7          	lea    rdi,[rdi+rsi*4]
    2154:	48 8d 14 8a          	lea    rdx,[rdx+rcx*4]
    2158:	e8 e3 fb ff ff       	call   1d40 <x264_8_pixel_satd_8x8_internal_mmx2>
    215d:	0f 70 c8 4e          	pshufw mm1,mm0,0x4e
    2161:	0f fd c1             	paddw  mm0,mm1
    2164:	0f 70 c8 b1          	pshufw mm1,mm0,0xb1
    2168:	0f fd c1             	paddw  mm0,mm1
    216b:	0f 7e c0             	movd   eax,mm0
    216e:	25 ff ff 00 00       	and    eax,0xffff
    2173:	c3                   	ret    
    2174:	0f 1f 84 00 00 00 00 	nop    DWORD PTR [rax+rax*1+0x0]
    217b:	00 
    217c:	0f 1f 40 00          	nop    DWORD PTR [rax+0x0]

0000000000002180 <x264_8_pixel_satd_8x8_mmx2>:
    2180:	4c 8d 04 76          	lea    r8,[rsi+rsi*2]
    2184:	4c 8d 0c 49          	lea    r9,[rcx+rcx*2]
    2188:	0f ef c0             	pxor   mm0,mm0
    218b:	e8 b0 fb ff ff       	call   1d40 <x264_8_pixel_satd_8x8_internal_mmx2>
    2190:	0f 70 c8 4e          	pshufw mm1,mm0,0x4e
    2194:	0f fd c1             	paddw  mm0,mm1
    2197:	0f 70 c8 b1          	pshufw mm1,mm0,0xb1
    219b:	0f fd c1             	paddw  mm0,mm1
    219e:	0f 7e c0             	movd   eax,mm0
    21a1:	25 ff ff 00 00       	and    eax,0xffff
    21a6:	c3                   	ret    
    21a7:	0f 1f 84 00 00 00 00 	nop    DWORD PTR [rax+rax*1+0x0]
    21ae:	00 
    21af:	90                   	nop

00000000000021b0 <x264_8_pixel_satd_8x4_mmx2>:
    21b0:	4c 8d 04 76          	lea    r8,[rsi+rsi*2]
    21b4:	4c 8d 0c 49          	lea    r9,[rcx+rcx*2]
    21b8:	0f ef c0             	pxor   mm0,mm0
    21bb:	e8 2c fd ff ff       	call   1eec <x264_8_pixel_satd_8x8_internal_mmx2+0x1ac>
    21c0:	0f 70 c8 4e          	pshufw mm1,mm0,0x4e
    21c4:	0f fd c1             	paddw  mm0,mm1
    21c7:	0f 70 c8 b1          	pshufw mm1,mm0,0xb1
    21cb:	0f fd c1             	paddw  mm0,mm1
    21ce:	0f 7e c0             	movd   eax,mm0
    21d1:	25 ff ff 00 00       	and    eax,0xffff
    21d6:	c3                   	ret    
    21d7:	0f 1f 84 00 00 00 00 	nop    DWORD PTR [rax+rax*1+0x0]
    21de:	00 
    21df:	90                   	nop

00000000000021e0 <x264_8_pixel_satd_4x16_mmx2>:
    21e0:	4c 8d 04 76          	lea    r8,[rsi+rsi*2]
    21e4:	4c 8d 0c 49          	lea    r9,[rcx+rcx*2]
    21e8:	0f 6e 27             	movd   mm4,DWORD PTR [rdi]
    21eb:	0f 6e 1a             	movd   mm3,DWORD PTR [rdx]
    21ee:	0f 60 e3             	punpcklbw mm4,mm3
    21f1:	0f 60 db             	punpcklbw mm3,mm3
    21f4:	0f f9 e3             	psubw  mm4,mm3
    21f7:	0f 6e 2c 37          	movd   mm5,DWORD PTR [rdi+rsi*1]
    21fb:	0f 6e 1c 0a          	movd   mm3,DWORD PTR [rdx+rcx*1]
    21ff:	0f 60 eb             	punpcklbw mm5,mm3
    2202:	0f 60 db             	punpcklbw mm3,mm3
    2205:	0f f9 eb             	psubw  mm5,mm3
    2208:	0f 6e 34 77          	movd   mm6,DWORD PTR [rdi+rsi*2]
    220c:	0f 6e 1c 4a          	movd   mm3,DWORD PTR [rdx+rcx*2]
    2210:	0f 60 f3             	punpcklbw mm6,mm3
    2213:	0f 60 db             	punpcklbw mm3,mm3
    2216:	0f f9 f3             	psubw  mm6,mm3
    2219:	42 0f 6e 3c 07       	movd   mm7,DWORD PTR [rdi+r8*1]
    221e:	42 0f 6e 1c 0a       	movd   mm3,DWORD PTR [rdx+r9*1]
    2223:	0f 60 fb             	punpcklbw mm7,mm3
    2226:	0f 60 db             	punpcklbw mm3,mm3
    2229:	0f f9 fb             	psubw  mm7,mm3
    222c:	48 8d 3c b7          	lea    rdi,[rdi+rsi*4]
    2230:	48 8d 14 8a          	lea    rdx,[rdx+rcx*4]
    2234:	0f 6f dc             	movq   mm3,mm4
    2237:	0f fd e5             	paddw  mm4,mm5
    223a:	0f f9 eb             	psubw  mm5,mm3
    223d:	0f 6f de             	movq   mm3,mm6
    2240:	0f fd f7             	paddw  mm6,mm7
    2243:	0f f9 fb             	psubw  mm7,mm3
    2246:	0f 6f dc             	movq   mm3,mm4
    2249:	0f 61 e5             	punpcklwd mm4,mm5
    224c:	0f 69 dd             	punpckhwd mm3,mm5
    224f:	0f 6f ec             	movq   mm5,mm4
    2252:	0f fd e3             	paddw  mm4,mm3
    2255:	0f f9 dd             	psubw  mm3,mm5
    2258:	0f 6f ee             	movq   mm5,mm6
    225b:	0f 61 f7             	punpcklwd mm6,mm7
    225e:	0f 69 ef             	punpckhwd mm5,mm7
    2261:	0f 6f fe             	movq   mm7,mm6
    2264:	0f fd f5             	paddw  mm6,mm5
    2267:	0f f9 ef             	psubw  mm5,mm7
    226a:	0f 6f fc             	movq   mm7,mm4
    226d:	0f fd e6             	paddw  mm4,mm6
    2270:	0f f9 f7             	psubw  mm6,mm7
    2273:	0f 6f fb             	movq   mm7,mm3
    2276:	0f fd dd             	paddw  mm3,mm5
    2279:	0f f9 ef             	psubw  mm5,mm7
    227c:	0f 6f fc             	movq   mm7,mm4
    227f:	0f 62 e6             	punpckldq mm4,mm6
    2282:	0f 6a fe             	punpckhdq mm7,mm6
    2285:	0f ef f6             	pxor   mm6,mm6
    2288:	0f ef c0             	pxor   mm0,mm0
    228b:	0f f9 f4             	psubw  mm6,mm4
    228e:	0f f9 c7             	psubw  mm0,mm7
    2291:	0f ee e6             	pmaxsw mm4,mm6
    2294:	0f ee f8             	pmaxsw mm7,mm0
    2297:	0f ee e7             	pmaxsw mm4,mm7
    229a:	0f 6f f3             	movq   mm6,mm3
    229d:	0f 62 dd             	punpckldq mm3,mm5
    22a0:	0f 6a f5             	punpckhdq mm6,mm5
    22a3:	0f ef ed             	pxor   mm5,mm5
    22a6:	0f ef c0             	pxor   mm0,mm0
    22a9:	0f f9 eb             	psubw  mm5,mm3
    22ac:	0f f9 c6             	psubw  mm0,mm6
    22af:	0f ee dd             	pmaxsw mm3,mm5
    22b2:	0f ee f0             	pmaxsw mm6,mm0
    22b5:	0f ee de             	pmaxsw mm3,mm6
    22b8:	0f fd e3             	paddw  mm4,mm3
    22bb:	0f 6e 07             	movd   mm0,DWORD PTR [rdi]
    22be:	0f 6e 2a             	movd   mm5,DWORD PTR [rdx]
    22c1:	0f 60 c5             	punpcklbw mm0,mm5
    22c4:	0f 60 ed             	punpcklbw mm5,mm5
    22c7:	0f f9 c5             	psubw  mm0,mm5
    22ca:	0f 6e 3c 37          	movd   mm7,DWORD PTR [rdi+rsi*1]
    22ce:	0f 6e 2c 0a          	movd   mm5,DWORD PTR [rdx+rcx*1]
    22d2:	0f 60 fd             	punpcklbw mm7,mm5
    22d5:	0f 60 ed             	punpcklbw mm5,mm5
    22d8:	0f f9 fd             	psubw  mm7,mm5
    22db:	0f 6e 1c 77          	movd   mm3,DWORD PTR [rdi+rsi*2]
    22df:	0f 6e 2c 4a          	movd   mm5,DWORD PTR [rdx+rcx*2]
    22e3:	0f 60 dd             	punpcklbw mm3,mm5
    22e6:	0f 60 ed             	punpcklbw mm5,mm5
    22e9:	0f f9 dd             	psubw  mm3,mm5
    22ec:	42 0f 6e 34 07       	movd   mm6,DWORD PTR [rdi+r8*1]
    22f1:	42 0f 6e 2c 0a       	movd   mm5,DWORD PTR [rdx+r9*1]
    22f6:	0f 60 f5             	punpcklbw mm6,mm5
    22f9:	0f 60 ed             	punpcklbw mm5,mm5
    22fc:	0f f9 f5             	psubw  mm6,mm5
    22ff:	48 8d 3c b7          	lea    rdi,[rdi+rsi*4]
    2303:	48 8d 14 8a          	lea    rdx,[rdx+rcx*4]
    2307:	0f 6f e8             	movq   mm5,mm0
    230a:	0f fd c7             	paddw  mm0,mm7
    230d:	0f f9 fd             	psubw  mm7,mm5
    2310:	0f 6f eb             	movq   mm5,mm3
    2313:	0f fd de             	paddw  mm3,mm6
    2316:	0f f9 f5             	psubw  mm6,mm5
    2319:	0f 6f e8             	movq   mm5,mm0
    231c:	0f 61 c7             	punpcklwd mm0,mm7
    231f:	0f 69 ef             	punpckhwd mm5,mm7
    2322:	0f 6f f8             	movq   mm7,mm0
    2325:	0f fd c5             	paddw  mm0,mm5
    2328:	0f f9 ef             	psubw  mm5,mm7
    232b:	0f 6f fb             	movq   mm7,mm3
    232e:	0f 61 de             	punpcklwd mm3,mm6
    2331:	0f 69 fe             	punpckhwd mm7,mm6
    2334:	0f 6f f3             	movq   mm6,mm3
    2337:	0f fd df             	paddw  mm3,mm7
    233a:	0f f9 fe             	psubw  mm7,mm6
    233d:	0f 6f f0             	movq   mm6,mm0
    2340:	0f fd c3             	paddw  mm0,mm3
    2343:	0f f9 de             	psubw  mm3,mm6
    2346:	0f 6f f5             	movq   mm6,mm5
    2349:	0f fd ef             	paddw  mm5,mm7
    234c:	0f f9 fe             	psubw  mm7,mm6
    234f:	0f 6f f0             	movq   mm6,mm0
    2352:	0f 62 c3             	punpckldq mm0,mm3
    2355:	0f 6a f3             	punpckhdq mm6,mm3
    2358:	0f ef db             	pxor   mm3,mm3
    235b:	0f ef c9             	pxor   mm1,mm1
    235e:	0f f9 d8             	psubw  mm3,mm0
    2361:	0f f9 ce             	psubw  mm1,mm6
    2364:	0f ee c3             	pmaxsw mm0,mm3
    2367:	0f ee f1             	pmaxsw mm6,mm1
    236a:	0f ee c6             	pmaxsw mm0,mm6
    236d:	0f 6f dd             	movq   mm3,mm5
    2370:	0f 62 ef             	punpckldq mm5,mm7
    2373:	0f 6a df             	punpckhdq mm3,mm7
    2376:	0f ef ff             	pxor   mm7,mm7
    2379:	0f ef c9             	pxor   mm1,mm1
    237c:	0f f9 fd             	psubw  mm7,mm5
    237f:	0f f9 cb             	psubw  mm1,mm3
    2382:	0f ee ef             	pmaxsw mm5,mm7
    2385:	0f ee d9             	pmaxsw mm3,mm1
    2388:	0f ee eb             	pmaxsw mm5,mm3
    238b:	0f fd c5             	paddw  mm0,mm5
    238e:	0f fd e0             	paddw  mm4,mm0
    2391:	0f 6e 0f             	movd   mm1,DWORD PTR [rdi]
    2394:	0f 6e 3a             	movd   mm7,DWORD PTR [rdx]
    2397:	0f 60 cf             	punpcklbw mm1,mm7
    239a:	0f 60 ff             	punpcklbw mm7,mm7
    239d:	0f f9 cf             	psubw  mm1,mm7
    23a0:	0f 6e 34 37          	movd   mm6,DWORD PTR [rdi+rsi*1]
    23a4:	0f 6e 3c 0a          	movd   mm7,DWORD PTR [rdx+rcx*1]
    23a8:	0f 60 f7             	punpcklbw mm6,mm7
    23ab:	0f 60 ff             	punpcklbw mm7,mm7
    23ae:	0f f9 f7             	psubw  mm6,mm7
    23b1:	0f 6e 2c 77          	movd   mm5,DWORD PTR [rdi+rsi*2]
    23b5:	0f 6e 3c 4a          	movd   mm7,DWORD PTR [rdx+rcx*2]
    23b9:	0f 60 ef             	punpcklbw mm5,mm7
    23bc:	0f 60 ff             	punpcklbw mm7,mm7
    23bf:	0f f9 ef             	psubw  mm5,mm7
    23c2:	42 0f 6e 1c 07       	movd   mm3,DWORD PTR [rdi+r8*1]
    23c7:	42 0f 6e 3c 0a       	movd   mm7,DWORD PTR [rdx+r9*1]
    23cc:	0f 60 df             	punpcklbw mm3,mm7
    23cf:	0f 60 ff             	punpcklbw mm7,mm7
    23d2:	0f f9 df             	psubw  mm3,mm7
    23d5:	48 8d 3c b7          	lea    rdi,[rdi+rsi*4]
    23d9:	48 8d 14 8a          	lea    rdx,[rdx+rcx*4]
    23dd:	0f 6f f9             	movq   mm7,mm1
    23e0:	0f fd ce             	paddw  mm1,mm6
    23e3:	0f f9 f7             	psubw  mm6,mm7
    23e6:	0f 6f fd             	movq   mm7,mm5
    23e9:	0f fd eb             	paddw  mm5,mm3
    23ec:	0f f9 df             	psubw  mm3,mm7
    23ef:	0f 6f f9             	movq   mm7,mm1
    23f2:	0f 61 ce             	punpcklwd mm1,mm6
    23f5:	0f 69 fe             	punpckhwd mm7,mm6
    23f8:	0f 6f f1             	movq   mm6,mm1
    23fb:	0f fd cf             	paddw  mm1,mm7
    23fe:	0f f9 fe             	psubw  mm7,mm6
    2401:	0f 6f f5             	movq   mm6,mm5
    2404:	0f 61 eb             	punpcklwd mm5,mm3
    2407:	0f 69 f3             	punpckhwd mm6,mm3
    240a:	0f 6f dd             	movq   mm3,mm5
    240d:	0f fd ee             	paddw  mm5,mm6
    2410:	0f f9 f3             	psubw  mm6,mm3
    2413:	0f 6f d9             	movq   mm3,mm1
    2416:	0f fd cd             	paddw  mm1,mm5
    2419:	0f f9 eb             	psubw  mm5,mm3
    241c:	0f 6f df             	movq   mm3,mm7
    241f:	0f fd fe             	paddw  mm7,mm6
    2422:	0f f9 f3             	psubw  mm6,mm3
    2425:	0f 6f d9             	movq   mm3,mm1
    2428:	0f 62 cd             	punpckldq mm1,mm5
    242b:	0f 6a dd             	punpckhdq mm3,mm5
    242e:	0f ef ed             	pxor   mm5,mm5
    2431:	0f ef c0             	pxor   mm0,mm0
    2434:	0f f9 e9             	psubw  mm5,mm1
    2437:	0f f9 c3             	psubw  mm0,mm3
    243a:	0f ee cd             	pmaxsw mm1,mm5
    243d:	0f ee d8             	pmaxsw mm3,mm0
    2440:	0f ee cb             	pmaxsw mm1,mm3
    2443:	0f 6f ef             	movq   mm5,mm7
    2446:	0f 62 fe             	punpckldq mm7,mm6
    2449:	0f 6a ee             	punpckhdq mm5,mm6
    244c:	0f ef f6             	pxor   mm6,mm6
    244f:	0f ef c0             	pxor   mm0,mm0
    2452:	0f f9 f7             	psubw  mm6,mm7
    2455:	0f f9 c5             	psubw  mm0,mm5
    2458:	0f ee fe             	pmaxsw mm7,mm6
    245b:	0f ee e8             	pmaxsw mm5,mm0
    245e:	0f ee fd             	pmaxsw mm7,mm5
    2461:	0f fd cf             	paddw  mm1,mm7
    2464:	0f fd e1             	paddw  mm4,mm1
    2467:	0f 6e 07             	movd   mm0,DWORD PTR [rdi]
    246a:	0f 6e 32             	movd   mm6,DWORD PTR [rdx]
    246d:	0f 60 c6             	punpcklbw mm0,mm6
    2470:	0f 60 f6             	punpcklbw mm6,mm6
    2473:	0f f9 c6             	psubw  mm0,mm6
    2476:	0f 6e 1c 37          	movd   mm3,DWORD PTR [rdi+rsi*1]
    247a:	0f 6e 34 0a          	movd   mm6,DWORD PTR [rdx+rcx*1]
    247e:	0f 60 de             	punpcklbw mm3,mm6
    2481:	0f 60 f6             	punpcklbw mm6,mm6
    2484:	0f f9 de             	psubw  mm3,mm6
    2487:	0f 6e 3c 77          	movd   mm7,DWORD PTR [rdi+rsi*2]
    248b:	0f 6e 34 4a          	movd   mm6,DWORD PTR [rdx+rcx*2]
    248f:	0f 60 fe             	punpcklbw mm7,mm6
    2492:	0f 60 f6             	punpcklbw mm6,mm6
    2495:	0f f9 fe             	psubw  mm7,mm6
    2498:	42 0f 6e 2c 07       	movd   mm5,DWORD PTR [rdi+r8*1]
    249d:	42 0f 6e 34 0a       	movd   mm6,DWORD PTR [rdx+r9*1]
    24a2:	0f 60 ee             	punpcklbw mm5,mm6
    24a5:	0f 60 f6             	punpcklbw mm6,mm6
    24a8:	0f f9 ee             	psubw  mm5,mm6
    24ab:	0f 6f f0             	movq   mm6,mm0
    24ae:	0f fd c3             	paddw  mm0,mm3
    24b1:	0f f9 de             	psubw  mm3,mm6
    24b4:	0f 6f f7             	movq   mm6,mm7
    24b7:	0f fd fd             	paddw  mm7,mm5
    24ba:	0f f9 ee             	psubw  mm5,mm6
    24bd:	0f 6f f0             	movq   mm6,mm0
    24c0:	0f 61 c3             	punpcklwd mm0,mm3
    24c3:	0f 69 f3             	punpckhwd mm6,mm3
    24c6:	0f 6f d8             	movq   mm3,mm0
    24c9:	0f fd c6             	paddw  mm0,mm6
    24cc:	0f f9 f3             	psubw  mm6,mm3
    24cf:	0f 6f df             	movq   mm3,mm7
    24d2:	0f 61 fd             	punpcklwd mm7,mm5
    24d5:	0f 69 dd             	punpckhwd mm3,mm5
    24d8:	0f 6f ef             	movq   mm5,mm7
    24db:	0f fd fb             	paddw  mm7,mm3
    24de:	0f f9 dd             	psubw  mm3,mm5
    24e1:	0f 6f e8             	movq   mm5,mm0
    24e4:	0f fd c7             	paddw  mm0,mm7
    24e7:	0f f9 fd             	psubw  mm7,mm5
    24ea:	0f 6f ee             	movq   mm5,mm6
    24ed:	0f fd f3             	paddw  mm6,mm3
    24f0:	0f f9 dd             	psubw  mm3,mm5
    24f3:	0f 6f e8             	movq   mm5,mm0
    24f6:	0f 62 c7             	punpckldq mm0,mm7
    24f9:	0f 6a ef             	punpckhdq mm5,mm7
    24fc:	0f ef ff             	pxor   mm7,mm7
    24ff:	0f ef c9             	pxor   mm1,mm1
    2502:	0f f9 f8             	psubw  mm7,mm0
    2505:	0f f9 cd             	psubw  mm1,mm5
    2508:	0f ee c7             	pmaxsw mm0,mm7
    250b:	0f ee e9             	pmaxsw mm5,mm1
    250e:	0f ee c5             	pmaxsw mm0,mm5
    2511:	0f 6f fe             	movq   mm7,mm6
    2514:	0f 62 f3             	punpckldq mm6,mm3
    2517:	0f 6a fb             	punpckhdq mm7,mm3
    251a:	0f ef db             	pxor   mm3,mm3
    251d:	0f ef c9             	pxor   mm1,mm1
    2520:	0f f9 de             	psubw  mm3,mm6
    2523:	0f f9 cf             	psubw  mm1,mm7
    2526:	0f ee f3             	pmaxsw mm6,mm3
    2529:	0f ee f9             	pmaxsw mm7,mm1
    252c:	0f ee f7             	pmaxsw mm6,mm7
    252f:	0f fd c6             	paddw  mm0,mm6
    2532:	0f fd e0             	paddw  mm4,mm0
    2535:	0f 70 c4 4e          	pshufw mm0,mm4,0x4e
    2539:	0f fd e0             	paddw  mm4,mm0
    253c:	0f 70 c4 b1          	pshufw mm0,mm4,0xb1
    2540:	0f fd e0             	paddw  mm4,mm0
    2543:	0f 7e e0             	movd   eax,mm4
    2546:	25 ff ff 00 00       	and    eax,0xffff
    254b:	c3                   	ret    
    254c:	0f 1f 40 00          	nop    DWORD PTR [rax+0x0]

0000000000002550 <x264_8_pixel_satd_4x8_mmx2>:
    2550:	4c 8d 04 76          	lea    r8,[rsi+rsi*2]
    2554:	4c 8d 0c 49          	lea    r9,[rcx+rcx*2]
    2558:	0f 6e 27             	movd   mm4,DWORD PTR [rdi]
    255b:	0f 6e 1a             	movd   mm3,DWORD PTR [rdx]
    255e:	0f 60 e3             	punpcklbw mm4,mm3
    2561:	0f 60 db             	punpcklbw mm3,mm3
    2564:	0f f9 e3             	psubw  mm4,mm3
    2567:	0f 6e 2c 37          	movd   mm5,DWORD PTR [rdi+rsi*1]
    256b:	0f 6e 1c 0a          	movd   mm3,DWORD PTR [rdx+rcx*1]
    256f:	0f 60 eb             	punpcklbw mm5,mm3
    2572:	0f 60 db             	punpcklbw mm3,mm3
    2575:	0f f9 eb             	psubw  mm5,mm3
    2578:	0f 6e 34 77          	movd   mm6,DWORD PTR [rdi+rsi*2]
    257c:	0f 6e 1c 4a          	movd   mm3,DWORD PTR [rdx+rcx*2]
    2580:	0f 60 f3             	punpcklbw mm6,mm3
    2583:	0f 60 db             	punpcklbw mm3,mm3
    2586:	0f f9 f3             	psubw  mm6,mm3
    2589:	42 0f 6e 3c 07       	movd   mm7,DWORD PTR [rdi+r8*1]
    258e:	42 0f 6e 1c 0a       	movd   mm3,DWORD PTR [rdx+r9*1]
    2593:	0f 60 fb             	punpcklbw mm7,mm3
    2596:	0f 60 db             	punpcklbw mm3,mm3
    2599:	0f f9 fb             	psubw  mm7,mm3
    259c:	48 8d 3c b7          	lea    rdi,[rdi+rsi*4]
    25a0:	48 8d 14 8a          	lea    rdx,[rdx+rcx*4]
    25a4:	0f 6f dc             	movq   mm3,mm4
    25a7:	0f fd e5             	paddw  mm4,mm5
    25aa:	0f f9 eb             	psubw  mm5,mm3
    25ad:	0f 6f de             	movq   mm3,mm6
    25b0:	0f fd f7             	paddw  mm6,mm7
    25b3:	0f f9 fb             	psubw  mm7,mm3
    25b6:	0f 6f dc             	movq   mm3,mm4
    25b9:	0f 61 e5             	punpcklwd mm4,mm5
    25bc:	0f 69 dd             	punpckhwd mm3,mm5
    25bf:	0f 6f ec             	movq   mm5,mm4
    25c2:	0f fd e3             	paddw  mm4,mm3
    25c5:	0f f9 dd             	psubw  mm3,mm5
    25c8:	0f 6f ee             	movq   mm5,mm6
    25cb:	0f 61 f7             	punpcklwd mm6,mm7
    25ce:	0f 69 ef             	punpckhwd mm5,mm7
    25d1:	0f 6f fe             	movq   mm7,mm6
    25d4:	0f fd f5             	paddw  mm6,mm5
    25d7:	0f f9 ef             	psubw  mm5,mm7
    25da:	0f 6f fc             	movq   mm7,mm4
    25dd:	0f fd e6             	paddw  mm4,mm6
    25e0:	0f f9 f7             	psubw  mm6,mm7
    25e3:	0f 6f fb             	movq   mm7,mm3
    25e6:	0f fd dd             	paddw  mm3,mm5
    25e9:	0f f9 ef             	psubw  mm5,mm7
    25ec:	0f 6f fc             	movq   mm7,mm4
    25ef:	0f 62 e6             	punpckldq mm4,mm6
    25f2:	0f 6a fe             	punpckhdq mm7,mm6
    25f5:	0f ef f6             	pxor   mm6,mm6
    25f8:	0f ef c0             	pxor   mm0,mm0
    25fb:	0f f9 f4             	psubw  mm6,mm4
    25fe:	0f f9 c7             	psubw  mm0,mm7
    2601:	0f ee e6             	pmaxsw mm4,mm6
    2604:	0f ee f8             	pmaxsw mm7,mm0
    2607:	0f ee e7             	pmaxsw mm4,mm7
    260a:	0f 6f f3             	movq   mm6,mm3
    260d:	0f 62 dd             	punpckldq mm3,mm5
    2610:	0f 6a f5             	punpckhdq mm6,mm5
    2613:	0f ef ed             	pxor   mm5,mm5
    2616:	0f ef c0             	pxor   mm0,mm0
    2619:	0f f9 eb             	psubw  mm5,mm3
    261c:	0f f9 c6             	psubw  mm0,mm6
    261f:	0f ee dd             	pmaxsw mm3,mm5
    2622:	0f ee f0             	pmaxsw mm6,mm0
    2625:	0f ee de             	pmaxsw mm3,mm6
    2628:	0f fd e3             	paddw  mm4,mm3
    262b:	0f 6e 07             	movd   mm0,DWORD PTR [rdi]
    262e:	0f 6e 2a             	movd   mm5,DWORD PTR [rdx]
    2631:	0f 60 c5             	punpcklbw mm0,mm5
    2634:	0f 60 ed             	punpcklbw mm5,mm5
    2637:	0f f9 c5             	psubw  mm0,mm5
    263a:	0f 6e 3c 37          	movd   mm7,DWORD PTR [rdi+rsi*1]
    263e:	0f 6e 2c 0a          	movd   mm5,DWORD PTR [rdx+rcx*1]
    2642:	0f 60 fd             	punpcklbw mm7,mm5
    2645:	0f 60 ed             	punpcklbw mm5,mm5
    2648:	0f f9 fd             	psubw  mm7,mm5
    264b:	0f 6e 1c 77          	movd   mm3,DWORD PTR [rdi+rsi*2]
    264f:	0f 6e 2c 4a          	movd   mm5,DWORD PTR [rdx+rcx*2]
    2653:	0f 60 dd             	punpcklbw mm3,mm5
    2656:	0f 60 ed             	punpcklbw mm5,mm5
    2659:	0f f9 dd             	psubw  mm3,mm5
    265c:	42 0f 6e 34 07       	movd   mm6,DWORD PTR [rdi+r8*1]
    2661:	42 0f 6e 2c 0a       	movd   mm5,DWORD PTR [rdx+r9*1]
    2666:	0f 60 f5             	punpcklbw mm6,mm5
    2669:	0f 60 ed             	punpcklbw mm5,mm5
    266c:	0f f9 f5             	psubw  mm6,mm5
    266f:	0f 6f e8             	movq   mm5,mm0
    2672:	0f fd c7             	paddw  mm0,mm7
    2675:	0f f9 fd             	psubw  mm7,mm5
    2678:	0f 6f eb             	movq   mm5,mm3
    267b:	0f fd de             	paddw  mm3,mm6
    267e:	0f f9 f5             	psubw  mm6,mm5
    2681:	0f 6f e8             	movq   mm5,mm0
    2684:	0f 61 c7             	punpcklwd mm0,mm7
    2687:	0f 69 ef             	punpckhwd mm5,mm7
    268a:	0f 6f f8             	movq   mm7,mm0
    268d:	0f fd c5             	paddw  mm0,mm5
    2690:	0f f9 ef             	psubw  mm5,mm7
    2693:	0f 6f fb             	movq   mm7,mm3
    2696:	0f 61 de             	punpcklwd mm3,mm6
    2699:	0f 69 fe             	punpckhwd mm7,mm6
    269c:	0f 6f f3             	movq   mm6,mm3
    269f:	0f fd df             	paddw  mm3,mm7
    26a2:	0f f9 fe             	psubw  mm7,mm6
    26a5:	0f 6f f0             	movq   mm6,mm0
    26a8:	0f fd c3             	paddw  mm0,mm3
    26ab:	0f f9 de             	psubw  mm3,mm6
    26ae:	0f 6f f5             	movq   mm6,mm5
    26b1:	0f fd ef             	paddw  mm5,mm7
    26b4:	0f f9 fe             	psubw  mm7,mm6
    26b7:	0f 6f f0             	movq   mm6,mm0
    26ba:	0f 62 c3             	punpckldq mm0,mm3
    26bd:	0f 6a f3             	punpckhdq mm6,mm3
    26c0:	0f ef db             	pxor   mm3,mm3
    26c3:	0f ef c9             	pxor   mm1,mm1
    26c6:	0f f9 d8             	psubw  mm3,mm0
    26c9:	0f f9 ce             	psubw  mm1,mm6
    26cc:	0f ee c3             	pmaxsw mm0,mm3
    26cf:	0f ee f1             	pmaxsw mm6,mm1
    26d2:	0f ee c6             	pmaxsw mm0,mm6
    26d5:	0f 6f dd             	movq   mm3,mm5
    26d8:	0f 62 ef             	punpckldq mm5,mm7
    26db:	0f 6a df             	punpckhdq mm3,mm7
    26de:	0f ef ff             	pxor   mm7,mm7
    26e1:	0f ef c9             	pxor   mm1,mm1
    26e4:	0f f9 fd             	psubw  mm7,mm5
    26e7:	0f f9 cb             	psubw  mm1,mm3
    26ea:	0f ee ef             	pmaxsw mm5,mm7
    26ed:	0f ee d9             	pmaxsw mm3,mm1
    26f0:	0f ee eb             	pmaxsw mm5,mm3
    26f3:	0f fd c5             	paddw  mm0,mm5
    26f6:	0f fd e0             	paddw  mm4,mm0
    26f9:	0f 70 c4 4e          	pshufw mm0,mm4,0x4e
    26fd:	0f fd e0             	paddw  mm4,mm0
    2700:	0f 70 c4 b1          	pshufw mm0,mm4,0xb1
    2704:	0f fd e0             	paddw  mm4,mm0
    2707:	0f 7e e0             	movd   eax,mm4
    270a:	25 ff ff 00 00       	and    eax,0xffff
    270f:	c3                   	ret    

0000000000002710 <x264_8_pixel_satd_4x4_mmx2>:
    2710:	4c 8d 04 76          	lea    r8,[rsi+rsi*2]
    2714:	4c 8d 0c 49          	lea    r9,[rcx+rcx*2]
    2718:	0f 6e 27             	movd   mm4,DWORD PTR [rdi]
    271b:	0f 6e 1a             	movd   mm3,DWORD PTR [rdx]
    271e:	0f 60 e3             	punpcklbw mm4,mm3
    2721:	0f 60 db             	punpcklbw mm3,mm3
    2724:	0f f9 e3             	psubw  mm4,mm3
    2727:	0f 6e 2c 37          	movd   mm5,DWORD PTR [rdi+rsi*1]
    272b:	0f 6e 1c 0a          	movd   mm3,DWORD PTR [rdx+rcx*1]
    272f:	0f 60 eb             	punpcklbw mm5,mm3
    2732:	0f 60 db             	punpcklbw mm3,mm3
    2735:	0f f9 eb             	psubw  mm5,mm3
    2738:	0f 6e 34 77          	movd   mm6,DWORD PTR [rdi+rsi*2]
    273c:	0f 6e 1c 4a          	movd   mm3,DWORD PTR [rdx+rcx*2]
    2740:	0f 60 f3             	punpcklbw mm6,mm3
    2743:	0f 60 db             	punpcklbw mm3,mm3
    2746:	0f f9 f3             	psubw  mm6,mm3
    2749:	42 0f 6e 3c 07       	movd   mm7,DWORD PTR [rdi+r8*1]
    274e:	42 0f 6e 1c 0a       	movd   mm3,DWORD PTR [rdx+r9*1]
    2753:	0f 60 fb             	punpcklbw mm7,mm3
    2756:	0f 60 db             	punpcklbw mm3,mm3
    2759:	0f f9 fb             	psubw  mm7,mm3
    275c:	0f 6f dc             	movq   mm3,mm4
    275f:	0f fd e5             	paddw  mm4,mm5
    2762:	0f f9 eb             	psubw  mm5,mm3
    2765:	0f 6f de             	movq   mm3,mm6
    2768:	0f fd f7             	paddw  mm6,mm7
    276b:	0f f9 fb             	psubw  mm7,mm3
    276e:	0f 6f dc             	movq   mm3,mm4
    2771:	0f 61 e5             	punpcklwd mm4,mm5
    2774:	0f 69 dd             	punpckhwd mm3,mm5
    2777:	0f 6f ec             	movq   mm5,mm4
    277a:	0f fd e3             	paddw  mm4,mm3
    277d:	0f f9 dd             	psubw  mm3,mm5
    2780:	0f 6f ee             	movq   mm5,mm6
    2783:	0f 61 f7             	punpcklwd mm6,mm7
    2786:	0f 69 ef             	punpckhwd mm5,mm7
    2789:	0f 6f fe             	movq   mm7,mm6
    278c:	0f fd f5             	paddw  mm6,mm5
    278f:	0f f9 ef             	psubw  mm5,mm7
    2792:	0f 6f fc             	movq   mm7,mm4
    2795:	0f fd e6             	paddw  mm4,mm6
    2798:	0f f9 f7             	psubw  mm6,mm7
    279b:	0f 6f fb             	movq   mm7,mm3
    279e:	0f fd dd             	paddw  mm3,mm5
    27a1:	0f f9 ef             	psubw  mm5,mm7
    27a4:	0f 6f fc             	movq   mm7,mm4
    27a7:	0f 62 e6             	punpckldq mm4,mm6
    27aa:	0f 6a fe             	punpckhdq mm7,mm6
    27ad:	0f ef f6             	pxor   mm6,mm6
    27b0:	0f ef c0             	pxor   mm0,mm0
    27b3:	0f f9 f4             	psubw  mm6,mm4
    27b6:	0f f9 c7             	psubw  mm0,mm7
    27b9:	0f ee e6             	pmaxsw mm4,mm6
    27bc:	0f ee f8             	pmaxsw mm7,mm0
    27bf:	0f ee e7             	pmaxsw mm4,mm7
    27c2:	0f 6f f3             	movq   mm6,mm3
    27c5:	0f 62 dd             	punpckldq mm3,mm5
    27c8:	0f 6a f5             	punpckhdq mm6,mm5
    27cb:	0f ef ed             	pxor   mm5,mm5
    27ce:	0f ef c0             	pxor   mm0,mm0
    27d1:	0f f9 eb             	psubw  mm5,mm3
    27d4:	0f f9 c6             	psubw  mm0,mm6
    27d7:	0f ee dd             	pmaxsw mm3,mm5
    27da:	0f ee f0             	pmaxsw mm6,mm0
    27dd:	0f ee de             	pmaxsw mm3,mm6
    27e0:	0f fd e3             	paddw  mm4,mm3
    27e3:	0f 70 cc 4e          	pshufw mm1,mm4,0x4e
    27e7:	0f fd e1             	paddw  mm4,mm1
    27ea:	0f 70 cc b1          	pshufw mm1,mm4,0xb1
    27ee:	0f fd e1             	paddw  mm4,mm1
    27f1:	0f 7e e0             	movd   eax,mm4
    27f4:	25 ff ff 00 00       	and    eax,0xffff
    27f9:	c3                   	ret    
    27fa:	66 0f 1f 44 00 00    	nop    WORD PTR [rax+rax*1+0x0]

0000000000002800 <x264_8_hadamard_load>:
    2800:	0f ef ff             	pxor   mm7,mm7
    2803:	0f 6e 07             	movd   mm0,DWORD PTR [rdi]
    2806:	0f 6e 4f 10          	movd   mm1,DWORD PTR [rdi+0x10]
    280a:	0f 6e 57 20          	movd   mm2,DWORD PTR [rdi+0x20]
    280e:	0f 6e 5f 30          	movd   mm3,DWORD PTR [rdi+0x30]
    2812:	0f 60 c7             	punpcklbw mm0,mm7
    2815:	0f 60 cf             	punpcklbw mm1,mm7
    2818:	0f 60 d7             	punpcklbw mm2,mm7
    281b:	0f 60 df             	punpcklbw mm3,mm7
    281e:	0f 6f e0             	movq   mm4,mm0
    2821:	0f fd c1             	paddw  mm0,mm1
    2824:	0f f9 cc             	psubw  mm1,mm4
    2827:	0f 6f e2             	movq   mm4,mm2
    282a:	0f fd d3             	paddw  mm2,mm3
    282d:	0f f9 dc             	psubw  mm3,mm4
    2830:	0f 6f e0             	movq   mm4,mm0
    2833:	0f 61 c1             	punpcklwd mm0,mm1
    2836:	0f 69 e1             	punpckhwd mm4,mm1
    2839:	0f 6f c8             	movq   mm1,mm0
    283c:	0f fd c4             	paddw  mm0,mm4
    283f:	0f f9 e1             	psubw  mm4,mm1
    2842:	0f 6f ca             	movq   mm1,mm2
    2845:	0f 61 d3             	punpcklwd mm2,mm3
    2848:	0f 69 cb             	punpckhwd mm1,mm3
    284b:	0f 6f da             	movq   mm3,mm2
    284e:	0f fd d1             	paddw  mm2,mm1
    2851:	0f f9 cb             	psubw  mm1,mm3
    2854:	0f 6f d8             	movq   mm3,mm0
    2857:	0f fd c2             	paddw  mm0,mm2
    285a:	0f f9 d3             	psubw  mm2,mm3
    285d:	0f 6f dc             	movq   mm3,mm4
    2860:	0f fd e1             	paddw  mm4,mm1
    2863:	0f f9 cb             	psubw  mm1,mm3
    2866:	0f 6f d8             	movq   mm3,mm0
    2869:	0f 62 c2             	punpckldq mm0,mm2
    286c:	0f 6a da             	punpckhdq mm3,mm2
    286f:	0f 6f d0             	movq   mm2,mm0
    2872:	0f fd c3             	paddw  mm0,mm3
    2875:	0f f9 da             	psubw  mm3,mm2
    2878:	0f 6f d4             	movq   mm2,mm4
    287b:	0f 62 e1             	punpckldq mm4,mm1
    287e:	0f 6a d1             	punpckhdq mm2,mm1
    2881:	0f 6f cc             	movq   mm1,mm4
    2884:	0f fd e2             	paddw  mm4,mm2
    2887:	0f f9 d1             	psubw  mm2,mm1
    288a:	c3                   	ret    
    288b:	0f 1f 44 00 00       	nop    DWORD PTR [rax+rax*1+0x0]

0000000000002890 <x264_8_hadamard_ac_4x4_mmx2>:
    2890:	0f 6e 07             	movd   mm0,DWORD PTR [rdi]
    2893:	0f 6e 0c 37          	movd   mm1,DWORD PTR [rdi+rsi*1]
    2897:	0f 6e 14 77          	movd   mm2,DWORD PTR [rdi+rsi*2]
    289b:	0f 6e 1c 17          	movd   mm3,DWORD PTR [rdi+rdx*1]
    289f:	0f 60 c7             	punpcklbw mm0,mm7
    28a2:	0f 60 cf             	punpcklbw mm1,mm7
    28a5:	0f 60 d7             	punpcklbw mm2,mm7
    28a8:	0f 60 df             	punpcklbw mm3,mm7
    28ab:	0f 6f e0             	movq   mm4,mm0
    28ae:	0f fd c1             	paddw  mm0,mm1
    28b1:	0f f9 cc             	psubw  mm1,mm4
    28b4:	0f 6f e2             	movq   mm4,mm2
    28b7:	0f fd d3             	paddw  mm2,mm3
    28ba:	0f f9 dc             	psubw  mm3,mm4
    28bd:	0f 6f e0             	movq   mm4,mm0
    28c0:	0f 61 c1             	punpcklwd mm0,mm1
    28c3:	0f 69 e1             	punpckhwd mm4,mm1
    28c6:	0f 6f c8             	movq   mm1,mm0
    28c9:	0f fd c4             	paddw  mm0,mm4
    28cc:	0f f9 e1             	psubw  mm4,mm1
    28cf:	0f 6f ca             	movq   mm1,mm2
    28d2:	0f 61 d3             	punpcklwd mm2,mm3
    28d5:	0f 69 cb             	punpckhwd mm1,mm3
    28d8:	0f 6f da             	movq   mm3,mm2
    28db:	0f fd d1             	paddw  mm2,mm1
    28de:	0f f9 cb             	psubw  mm1,mm3
    28e1:	0f 6f d8             	movq   mm3,mm0
    28e4:	0f fd c2             	paddw  mm0,mm2
    28e7:	0f f9 d3             	psubw  mm2,mm3
    28ea:	0f 6f dc             	movq   mm3,mm4
    28ed:	0f fd e1             	paddw  mm4,mm1
    28f0:	0f f9 cb             	psubw  mm1,mm3
    28f3:	0f 6f d8             	movq   mm3,mm0
    28f6:	0f 62 c2             	punpckldq mm0,mm2
    28f9:	0f 6a da             	punpckhdq mm3,mm2
    28fc:	0f 6f d0             	movq   mm2,mm0
    28ff:	0f fd c3             	paddw  mm0,mm3
    2902:	0f f9 da             	psubw  mm3,mm2
    2905:	0f 6f d4             	movq   mm2,mm4
    2908:	0f 62 e1             	punpckldq mm4,mm1
    290b:	0f 6a d1             	punpckhdq mm2,mm1
    290e:	0f 6f cc             	movq   mm1,mm4
    2911:	0f fd e2             	paddw  mm4,mm2
    2914:	0f f9 d1             	psubw  mm2,mm1
    2917:	0f 7f 01             	movq   QWORD PTR [rcx],mm0
    291a:	0f 7f 59 08          	movq   QWORD PTR [rcx+0x8],mm3
    291e:	0f 7f 61 10          	movq   QWORD PTR [rcx+0x10],mm4
    2922:	0f 7f 51 18          	movq   QWORD PTR [rcx+0x18],mm2
    2926:	0f ef c9             	pxor   mm1,mm1
    2929:	0f f9 c8             	psubw  mm1,mm0
    292c:	0f ee c1             	pmaxsw mm0,mm1
    292f:	0f ef c9             	pxor   mm1,mm1
    2932:	0f f9 cb             	psubw  mm1,mm3
    2935:	0f ee d9             	pmaxsw mm3,mm1
    2938:	0f db c6             	pand   mm0,mm6
    293b:	0f ef c9             	pxor   mm1,mm1
    293e:	0f f9 cc             	psubw  mm1,mm4
    2941:	0f ee e1             	pmaxsw mm4,mm1
    2944:	0f ef c9             	pxor   mm1,mm1
    2947:	0f f9 ca             	psubw  mm1,mm2
    294a:	0f ee d1             	pmaxsw mm2,mm1
    294d:	0f fd c3             	paddw  mm0,mm3
    2950:	0f fd e2             	paddw  mm4,mm2
    2953:	0f fd c4             	paddw  mm0,mm4
    2956:	c3                   	ret    
    2957:	0f 1f 84 00 00 00 00 	nop    DWORD PTR [rax+rax*1+0x0]
    295e:	00 
    295f:	90                   	nop

0000000000002960 <x264_8_hadamard_ac_2x2max_mmx2>:
    2960:	0f 6f 01             	movq   mm0,QWORD PTR [rcx]
    2963:	0f 6f 49 20          	movq   mm1,QWORD PTR [rcx+0x20]
    2967:	0f 6f 51 40          	movq   mm2,QWORD PTR [rcx+0x40]
    296b:	0f 6f 59 60          	movq   mm3,QWORD PTR [rcx+0x60]
    296f:	48 83 e9 08          	sub    rcx,0x8
    2973:	0f 6f e0             	movq   mm4,mm0
    2976:	0f fd c1             	paddw  mm0,mm1
    2979:	0f f9 cc             	psubw  mm1,mm4
    297c:	0f 6f e2             	movq   mm4,mm2
    297f:	0f fd d3             	paddw  mm2,mm3
    2982:	0f f9 dc             	psubw  mm3,mm4
    2985:	0f ef e4             	pxor   mm4,mm4
    2988:	0f ef ed             	pxor   mm5,mm5
    298b:	0f f9 e0             	psubw  mm4,mm0
    298e:	0f f9 ea             	psubw  mm5,mm2
    2991:	0f ee c4             	pmaxsw mm0,mm4
    2994:	0f ee d5             	pmaxsw mm2,mm5
    2997:	0f ef e4             	pxor   mm4,mm4
    299a:	0f ef ed             	pxor   mm5,mm5
    299d:	0f f9 e1             	psubw  mm4,mm1
    29a0:	0f f9 eb             	psubw  mm5,mm3
    29a3:	0f ee cc             	pmaxsw mm1,mm4
    29a6:	0f ee dd             	pmaxsw mm3,mm5
    29a9:	0f ee c2             	pmaxsw mm0,mm2
    29ac:	0f ee cb             	pmaxsw mm1,mm3
    29af:	0f fd f8             	paddw  mm7,mm0
    29b2:	0f fd f9             	paddw  mm7,mm1
    29b5:	c3                   	ret    
    29b6:	0f 1f 84 00 00 00 00 	nop    DWORD PTR [rax+rax*1+0x0]
    29bd:	00 
    29be:	66 90                	xchg   ax,ax

00000000000029c0 <x264_8_hadamard_ac_8x8_mmx2>:
    29c0:	0f 6f 35 00 00 00 00 	movq   mm6,QWORD PTR [rip+0x0]        # 29c7 <x264_8_hadamard_ac_8x8_mmx2+0x7>
    29c7:	0f ef ff             	pxor   mm7,mm7
    29ca:	e8 c1 fe ff ff       	call   2890 <x264_8_hadamard_ac_4x4_mmx2>
    29cf:	48 83 c7 04          	add    rdi,0x4
    29d3:	48 83 c1 20          	add    rcx,0x20
    29d7:	0f 6f e8             	movq   mm5,mm0
    29da:	e8 b1 fe ff ff       	call   2890 <x264_8_hadamard_ac_4x4_mmx2>
    29df:	48 8d 3c b7          	lea    rdi,[rdi+rsi*4]
    29e3:	48 83 c1 40          	add    rcx,0x40
    29e7:	0f fd e8             	paddw  mm5,mm0
    29ea:	e8 a1 fe ff ff       	call   2890 <x264_8_hadamard_ac_4x4_mmx2>
    29ef:	48 83 ef 04          	sub    rdi,0x4
    29f3:	48 83 e9 20          	sub    rcx,0x20
    29f7:	0f fd e8             	paddw  mm5,mm0
    29fa:	e8 91 fe ff ff       	call   2890 <x264_8_hadamard_ac_4x4_mmx2>
    29ff:	0f fd e8             	paddw  mm5,mm0
    2a02:	48 83 e9 28          	sub    rcx,0x28
    2a06:	0f 7f 6c 24 10       	movq   QWORD PTR [rsp+0x10],mm5
    2a0b:	e8 50 ff ff ff       	call   2960 <x264_8_hadamard_ac_2x2max_mmx2>
    2a10:	e8 4b ff ff ff       	call   2960 <x264_8_hadamard_ac_2x2max_mmx2>
    2a15:	e8 46 ff ff ff       	call   2960 <x264_8_hadamard_ac_2x2max_mmx2>
    2a1a:	0f 6f 01             	movq   mm0,QWORD PTR [rcx]
    2a1d:	0f 6f 49 20          	movq   mm1,QWORD PTR [rcx+0x20]
    2a21:	0f 6f 51 40          	movq   mm2,QWORD PTR [rcx+0x40]
    2a25:	0f 6f 59 60          	movq   mm3,QWORD PTR [rcx+0x60]
    2a29:	0f 6f e0             	movq   mm4,mm0
    2a2c:	0f fd c1             	paddw  mm0,mm1
    2a2f:	0f f9 cc             	psubw  mm1,mm4
    2a32:	0f 6f e2             	movq   mm4,mm2
    2a35:	0f fd d3             	paddw  mm2,mm3
    2a38:	0f f9 dc             	psubw  mm3,mm4
    2a3b:	0f 6f e0             	movq   mm4,mm0
    2a3e:	0f fd c2             	paddw  mm0,mm2
    2a41:	0f f9 d4             	psubw  mm2,mm4
    2a44:	0f ef e4             	pxor   mm4,mm4
    2a47:	0f ef ed             	pxor   mm5,mm5
    2a4a:	0f f9 e1             	psubw  mm4,mm1
    2a4d:	0f f9 eb             	psubw  mm5,mm3
    2a50:	0f ee cc             	pmaxsw mm1,mm4
    2a53:	0f ee dd             	pmaxsw mm3,mm5
    2a56:	0f ef e4             	pxor   mm4,mm4
    2a59:	0f ef ed             	pxor   mm5,mm5
    2a5c:	0f f9 e0             	psubw  mm4,mm0
    2a5f:	0f f9 ea             	psubw  mm5,mm2
    2a62:	0f ee c4             	pmaxsw mm0,mm4
    2a65:	0f ee d5             	pmaxsw mm2,mm5
    2a68:	0f ee cb             	pmaxsw mm1,mm3
    2a6b:	0f db f0             	pand   mm6,mm0
    2a6e:	0f fd f9             	paddw  mm7,mm1
    2a71:	0f fd f2             	paddw  mm6,mm2
    2a74:	0f fd ff             	paddw  mm7,mm7
    2a77:	0f fd f7             	paddw  mm6,mm7
    2a7a:	0f 7f 74 24 08       	movq   QWORD PTR [rsp+0x8],mm6
    2a7f:	c3                   	ret    

0000000000002a80 <x264_8_pixel_hadamard_ac_16x16_mmx2>:
    2a80:	48 81 ec 98 00 00 00 	sub    rsp,0x98
    2a87:	48 8d 14 76          	lea    rdx,[rsi+rsi*2]
    2a8b:	48 8d 4c 24 10       	lea    rcx,[rsp+0x10]
    2a90:	e8 2b ff ff ff       	call   29c0 <x264_8_hadamard_ac_8x8_mmx2>
    2a95:	48 8d 3c b7          	lea    rdi,[rdi+rsi*4]
    2a99:	48 83 ec 10          	sub    rsp,0x10
    2a9d:	e8 1e ff ff ff       	call   29c0 <x264_8_hadamard_ac_8x8_mmx2>
    2aa2:	48 f7 da             	neg    rdx
    2aa5:	48 83 ec 10          	sub    rsp,0x10
    2aa9:	48 8d 7c 97 08       	lea    rdi,[rdi+rdx*4+0x8]
    2aae:	48 f7 da             	neg    rdx
    2ab1:	e8 0a ff ff ff       	call   29c0 <x264_8_hadamard_ac_8x8_mmx2>
    2ab6:	48 8d 3c b7          	lea    rdi,[rdi+rsi*4]
    2aba:	48 83 ec 10          	sub    rsp,0x10
    2abe:	e8 fd fe ff ff       	call   29c0 <x264_8_hadamard_ac_8x8_mmx2>
    2ac3:	0f 6f 4c 24 08       	movq   mm1,QWORD PTR [rsp+0x8]
    2ac8:	0f dd 74 24 10       	paddusw mm6,QWORD PTR [rsp+0x10]
    2acd:	0f dd 4c 24 18       	paddusw mm1,QWORD PTR [rsp+0x18]
    2ad2:	0f 6f 54 24 20       	movq   mm2,QWORD PTR [rsp+0x20]
    2ad7:	0f dd 4c 24 28       	paddusw mm1,QWORD PTR [rsp+0x28]
    2adc:	0f dd 54 24 30       	paddusw mm2,QWORD PTR [rsp+0x30]
    2ae1:	0f 6f de             	movq   mm3,mm6
    2ae4:	0f dd 4c 24 38       	paddusw mm1,QWORD PTR [rsp+0x38]
    2ae9:	0f ef da             	pxor   mm3,mm2
    2aec:	0f db 1d 00 00 00 00 	pand   mm3,QWORD PTR [rip+0x0]        # 2af3 <x264_8_pixel_hadamard_ac_16x16_mmx2+0x73>
    2af3:	0f e3 f2             	pavgw  mm6,mm2
    2af6:	0f d9 f3             	psubusw mm6,mm3
    2af9:	0f 6f d6             	movq   mm2,mm6
    2afc:	0f 72 d2 10          	psrld  mm2,0x10
    2b00:	0f 72 f6 10          	pslld  mm6,0x10
    2b04:	0f 72 d6 10          	psrld  mm6,0x10
    2b08:	0f fe f2             	paddd  mm6,mm2
    2b0b:	0f 70 d6 4e          	pshufw mm2,mm6,0x4e
    2b0f:	0f fe f2             	paddd  mm6,mm2
    2b12:	0f 71 d1 01          	psrlw  mm1,0x1
    2b16:	0f f5 0d 00 00 00 00 	pmaddwd mm1,QWORD PTR [rip+0x0]        # 2b1d <x264_8_pixel_hadamard_ac_16x16_mmx2+0x9d>
    2b1d:	0f 70 d9 4e          	pshufw mm3,mm1,0x4e
    2b21:	0f fe cb             	paddd  mm1,mm3
    2b24:	0f 7e f2             	movd   edx,mm6
    2b27:	0f 7e c8             	movd   eax,mm1
    2b2a:	d1 ea                	shr    edx,1
    2b2c:	48 c1 e2 20          	shl    rdx,0x20
    2b30:	48 01 d0             	add    rax,rdx
    2b33:	48 81 c4 c8 00 00 00 	add    rsp,0xc8
    2b3a:	c3                   	ret    
    2b3b:	0f 1f 44 00 00       	nop    DWORD PTR [rax+rax*1+0x0]

0000000000002b40 <x264_8_pixel_hadamard_ac_8x16_mmx2>:
    2b40:	48 81 ec 98 00 00 00 	sub    rsp,0x98
    2b47:	48 8d 14 76          	lea    rdx,[rsi+rsi*2]
    2b4b:	48 8d 4c 24 10       	lea    rcx,[rsp+0x10]
    2b50:	e8 6b fe ff ff       	call   29c0 <x264_8_hadamard_ac_8x8_mmx2>
    2b55:	48 8d 3c b7          	lea    rdi,[rdi+rsi*4]
    2b59:	48 83 ec 10          	sub    rsp,0x10
    2b5d:	e8 5e fe ff ff       	call   29c0 <x264_8_hadamard_ac_8x8_mmx2>
    2b62:	0f 6f 4c 24 08       	movq   mm1,QWORD PTR [rsp+0x8]
    2b67:	0f dd 74 24 10       	paddusw mm6,QWORD PTR [rsp+0x10]
    2b6c:	0f dd 4c 24 18       	paddusw mm1,QWORD PTR [rsp+0x18]
    2b71:	0f 71 d6 01          	psrlw  mm6,0x1
    2b75:	0f f5 35 00 00 00 00 	pmaddwd mm6,QWORD PTR [rip+0x0]        # 2b7c <x264_8_pixel_hadamard_ac_8x16_mmx2+0x3c>
    2b7c:	0f 70 d6 4e          	pshufw mm2,mm6,0x4e
    2b80:	0f fe f2             	paddd  mm6,mm2
    2b83:	0f 71 d1 01          	psrlw  mm1,0x1
    2b87:	0f f5 0d 00 00 00 00 	pmaddwd mm1,QWORD PTR [rip+0x0]        # 2b8e <x264_8_pixel_hadamard_ac_8x16_mmx2+0x4e>
    2b8e:	0f 70 d9 4e          	pshufw mm3,mm1,0x4e
    2b92:	0f fe cb             	paddd  mm1,mm3
    2b95:	0f 7e f2             	movd   edx,mm6
    2b98:	0f 7e c8             	movd   eax,mm1
    2b9b:	d1 ea                	shr    edx,1
    2b9d:	48 c1 e2 20          	shl    rdx,0x20
    2ba1:	48 01 d0             	add    rax,rdx
    2ba4:	48 81 c4 a8 00 00 00 	add    rsp,0xa8
    2bab:	c3                   	ret    
    2bac:	0f 1f 40 00          	nop    DWORD PTR [rax+0x0]

0000000000002bb0 <x264_8_pixel_hadamard_ac_16x8_mmx2>:
    2bb0:	48 81 ec 98 00 00 00 	sub    rsp,0x98
    2bb7:	48 8d 14 76          	lea    rdx,[rsi+rsi*2]
    2bbb:	48 8d 4c 24 10       	lea    rcx,[rsp+0x10]
    2bc0:	e8 fb fd ff ff       	call   29c0 <x264_8_hadamard_ac_8x8_mmx2>
    2bc5:	48 f7 de             	neg    rsi
    2bc8:	48 83 ec 10          	sub    rsp,0x10
    2bcc:	48 8d 7c b7 08       	lea    rdi,[rdi+rsi*4+0x8]
    2bd1:	48 f7 de             	neg    rsi
    2bd4:	e8 e7 fd ff ff       	call   29c0 <x264_8_hadamard_ac_8x8_mmx2>
    2bd9:	0f 6f 4c 24 08       	movq   mm1,QWORD PTR [rsp+0x8]
    2bde:	0f dd 74 24 10       	paddusw mm6,QWORD PTR [rsp+0x10]
    2be3:	0f dd 4c 24 18       	paddusw mm1,QWORD PTR [rsp+0x18]
    2be8:	0f 71 d6 01          	psrlw  mm6,0x1
    2bec:	0f f5 35 00 00 00 00 	pmaddwd mm6,QWORD PTR [rip+0x0]        # 2bf3 <x264_8_pixel_hadamard_ac_16x8_mmx2+0x43>
    2bf3:	0f 70 d6 4e          	pshufw mm2,mm6,0x4e
    2bf7:	0f fe f2             	paddd  mm6,mm2
    2bfa:	0f 71 d1 01          	psrlw  mm1,0x1
    2bfe:	0f f5 0d 00 00 00 00 	pmaddwd mm1,QWORD PTR [rip+0x0]        # 2c05 <x264_8_pixel_hadamard_ac_16x8_mmx2+0x55>
    2c05:	0f 70 d9 4e          	pshufw mm3,mm1,0x4e
    2c09:	0f fe cb             	paddd  mm1,mm3
    2c0c:	0f 7e f2             	movd   edx,mm6
    2c0f:	0f 7e c8             	movd   eax,mm1
    2c12:	d1 ea                	shr    edx,1
    2c14:	48 c1 e2 20          	shl    rdx,0x20
    2c18:	48 01 d0             	add    rax,rdx
    2c1b:	48 81 c4 a8 00 00 00 	add    rsp,0xa8
    2c22:	c3                   	ret    
    2c23:	0f 1f 84 00 00 00 00 	nop    DWORD PTR [rax+rax*1+0x0]
    2c2a:	00 
    2c2b:	0f 1f 44 00 00       	nop    DWORD PTR [rax+rax*1+0x0]

0000000000002c30 <x264_8_pixel_hadamard_ac_8x8_mmx2>:
    2c30:	48 81 ec 98 00 00 00 	sub    rsp,0x98
    2c37:	48 8d 14 76          	lea    rdx,[rsi+rsi*2]
    2c3b:	48 8d 4c 24 10       	lea    rcx,[rsp+0x10]
    2c40:	e8 7b fd ff ff       	call   29c0 <x264_8_hadamard_ac_8x8_mmx2>
    2c45:	0f 6f 4c 24 08       	movq   mm1,QWORD PTR [rsp+0x8]
    2c4a:	0f 71 d6 01          	psrlw  mm6,0x1
    2c4e:	0f f5 35 00 00 00 00 	pmaddwd mm6,QWORD PTR [rip+0x0]        # 2c55 <x264_8_pixel_hadamard_ac_8x8_mmx2+0x25>
    2c55:	0f 70 d6 4e          	pshufw mm2,mm6,0x4e
    2c59:	0f fe f2             	paddd  mm6,mm2
    2c5c:	0f 71 d1 01          	psrlw  mm1,0x1
    2c60:	0f f5 0d 00 00 00 00 	pmaddwd mm1,QWORD PTR [rip+0x0]        # 2c67 <x264_8_pixel_hadamard_ac_8x8_mmx2+0x37>
    2c67:	0f 70 d9 4e          	pshufw mm3,mm1,0x4e
    2c6b:	0f fe cb             	paddd  mm1,mm3
    2c6e:	0f 7e f2             	movd   edx,mm6
    2c71:	0f 7e c8             	movd   eax,mm1
    2c74:	d1 ea                	shr    edx,1
    2c76:	48 c1 e2 20          	shl    rdx,0x20
    2c7a:	48 01 d0             	add    rax,rdx
    2c7d:	48 81 c4 98 00 00 00 	add    rsp,0x98
    2c84:	c3                   	ret    
    2c85:	0f 1f 84 00 00 00 00 	nop    DWORD PTR [rax+rax*1+0x0]
    2c8c:	00 
    2c8d:	0f 1f 00             	nop    DWORD PTR [rax]

0000000000002c90 <x264_8_pixel_sa8d_8x8_internal_sse2>:
    2c90:	48 8d 04 b7          	lea    rax,[rdi+rsi*4]
    2c94:	4c 8d 14 8a          	lea    r10,[rdx+rcx*4]
    2c98:	f3 0f 7e 07          	movq   xmm0,QWORD PTR [rdi]
    2c9c:	f3 0f 7e 2a          	movq   xmm5,QWORD PTR [rdx]
    2ca0:	66 0f 60 c7          	punpcklbw xmm0,xmm7
    2ca4:	66 0f 60 ef          	punpcklbw xmm5,xmm7
    2ca8:	66 0f f9 c5          	psubw  xmm0,xmm5
    2cac:	f3 0f 7e 0c 37       	movq   xmm1,QWORD PTR [rdi+rsi*1]
    2cb1:	f3 0f 7e 34 0a       	movq   xmm6,QWORD PTR [rdx+rcx*1]
    2cb6:	66 0f 60 cf          	punpcklbw xmm1,xmm7
    2cba:	66 0f 60 f7          	punpcklbw xmm6,xmm7
    2cbe:	66 0f f9 ce          	psubw  xmm1,xmm6
    2cc2:	f3 0f 7e 14 77       	movq   xmm2,QWORD PTR [rdi+rsi*2]
    2cc7:	f3 0f 7e 2c 4a       	movq   xmm5,QWORD PTR [rdx+rcx*2]
    2ccc:	66 0f 60 d7          	punpcklbw xmm2,xmm7
    2cd0:	66 0f 60 ef          	punpcklbw xmm5,xmm7
    2cd4:	66 0f f9 d5          	psubw  xmm2,xmm5
    2cd8:	f3 46 0f 7e 04 07    	movq   xmm8,QWORD PTR [rdi+r8*1]
    2cde:	f3 42 0f 7e 34 0a    	movq   xmm6,QWORD PTR [rdx+r9*1]
    2ce4:	66 44 0f 60 c7       	punpcklbw xmm8,xmm7
    2ce9:	66 0f 60 f7          	punpcklbw xmm6,xmm7
    2ced:	66 44 0f f9 c6       	psubw  xmm8,xmm6
    2cf2:	f3 0f 7e 20          	movq   xmm4,QWORD PTR [rax]
    2cf6:	f3 45 0f 7e 1a       	movq   xmm11,QWORD PTR [r10]
    2cfb:	66 0f 60 e7          	punpcklbw xmm4,xmm7
    2cff:	66 44 0f 60 df       	punpcklbw xmm11,xmm7
    2d04:	66 41 0f f9 e3       	psubw  xmm4,xmm11
    2d09:	f3 0f 7e 2c 30       	movq   xmm5,QWORD PTR [rax+rsi*1]
    2d0e:	f3 41 0f 7e 34 0a    	movq   xmm6,QWORD PTR [r10+rcx*1]
    2d14:	66 0f 60 ef          	punpcklbw xmm5,xmm7
    2d18:	66 0f 60 f7          	punpcklbw xmm6,xmm7
    2d1c:	66 0f f9 ee          	psubw  xmm5,xmm6
    2d20:	f3 0f 7e 1c 70       	movq   xmm3,QWORD PTR [rax+rsi*2]
    2d25:	f3 45 0f 7e 1c 4a    	movq   xmm11,QWORD PTR [r10+rcx*2]
    2d2b:	66 0f 60 df          	punpcklbw xmm3,xmm7
    2d2f:	66 44 0f 60 df       	punpcklbw xmm11,xmm7
    2d34:	66 41 0f f9 db       	psubw  xmm3,xmm11
    2d39:	f3 46 0f 7e 0c 00    	movq   xmm9,QWORD PTR [rax+r8*1]
    2d3f:	f3 43 0f 7e 34 0a    	movq   xmm6,QWORD PTR [r10+r9*1]
    2d45:	66 44 0f 60 cf       	punpcklbw xmm9,xmm7
    2d4a:	66 0f 60 f7          	punpcklbw xmm6,xmm7
    2d4e:	66 44 0f f9 ce       	psubw  xmm9,xmm6
    2d53:	0f 28 f0             	movaps xmm6,xmm0
    2d56:	66 0f fd c1          	paddw  xmm0,xmm1
    2d5a:	66 0f f9 ce          	psubw  xmm1,xmm6
    2d5e:	0f 28 f2             	movaps xmm6,xmm2
    2d61:	66 41 0f fd d0       	paddw  xmm2,xmm8
    2d66:	66 44 0f f9 c6       	psubw  xmm8,xmm6
    2d6b:	0f 28 f0             	movaps xmm6,xmm0
    2d6e:	66 0f 61 c1          	punpcklwd xmm0,xmm1
    2d72:	66 0f 69 f1          	punpckhwd xmm6,xmm1
    2d76:	0f 28 c8             	movaps xmm1,xmm0
    2d79:	66 0f fd c6          	paddw  xmm0,xmm6
    2d7d:	66 0f f9 f1          	psubw  xmm6,xmm1
    2d81:	0f 28 ca             	movaps xmm1,xmm2
    2d84:	66 41 0f 61 d0       	punpcklwd xmm2,xmm8
    2d89:	66 41 0f 69 c8       	punpckhwd xmm1,xmm8
    2d8e:	44 0f 28 c2          	movaps xmm8,xmm2
    2d92:	66 0f fd d1          	paddw  xmm2,xmm1
    2d96:	66 41 0f f9 c8       	psubw  xmm1,xmm8
    2d9b:	44 0f 28 c4          	movaps xmm8,xmm4
    2d9f:	66 0f fd e5          	paddw  xmm4,xmm5
    2da3:	66 41 0f f9 e8       	psubw  xmm5,xmm8
    2da8:	44 0f 28 c3          	movaps xmm8,xmm3
    2dac:	66 41 0f fd d9       	paddw  xmm3,xmm9
    2db1:	66 45 0f f9 c8       	psubw  xmm9,xmm8
    2db6:	44 0f 28 c4          	movaps xmm8,xmm4
    2dba:	66 0f 61 e5          	punpcklwd xmm4,xmm5
    2dbe:	66 44 0f 69 c5       	punpckhwd xmm8,xmm5
    2dc3:	0f 28 ec             	movaps xmm5,xmm4
    2dc6:	66 41 0f fd e0       	paddw  xmm4,xmm8
    2dcb:	66 44 0f f9 c5       	psubw  xmm8,xmm5
    2dd0:	0f 28 eb             	movaps xmm5,xmm3
    2dd3:	66 41 0f 61 d9       	punpcklwd xmm3,xmm9
    2dd8:	66 41 0f 69 e9       	punpckhwd xmm5,xmm9
    2ddd:	44 0f 28 cb          	movaps xmm9,xmm3
    2de1:	66 0f fd dd          	paddw  xmm3,xmm5
    2de5:	66 41 0f f9 e9       	psubw  xmm5,xmm9
    2dea:	44 0f 28 c8          	movaps xmm9,xmm0
    2dee:	66 0f fd c2          	paddw  xmm0,xmm2
    2df2:	66 41 0f f9 d1       	psubw  xmm2,xmm9
    2df7:	44 0f 28 ce          	movaps xmm9,xmm6
    2dfb:	66 0f fd f1          	paddw  xmm6,xmm1
    2dff:	66 41 0f f9 c9       	psubw  xmm1,xmm9
    2e04:	44 0f 28 c8          	movaps xmm9,xmm0
    2e08:	66 0f 62 c2          	punpckldq xmm0,xmm2
    2e0c:	66 44 0f 6a ca       	punpckhdq xmm9,xmm2
    2e11:	0f 28 d0             	movaps xmm2,xmm0
    2e14:	66 41 0f fd c1       	paddw  xmm0,xmm9
    2e19:	66 44 0f f9 ca       	psubw  xmm9,xmm2
    2e1e:	0f 28 d6             	movaps xmm2,xmm6
    2e21:	66 0f 62 f1          	punpckldq xmm6,xmm1
    2e25:	66 0f 6a d1          	punpckhdq xmm2,xmm1
    2e29:	0f 28 ce             	movaps xmm1,xmm6
    2e2c:	66 0f fd f2          	paddw  xmm6,xmm2
    2e30:	66 0f f9 d1          	psubw  xmm2,xmm1
    2e34:	0f 28 cc             	movaps xmm1,xmm4
    2e37:	66 0f fd e3          	paddw  xmm4,xmm3
    2e3b:	66 0f f9 d9          	psubw  xmm3,xmm1
    2e3f:	41 0f 28 c8          	movaps xmm1,xmm8
    2e43:	66 44 0f fd c5       	paddw  xmm8,xmm5
    2e48:	66 0f f9 e9          	psubw  xmm5,xmm1
    2e4c:	0f 28 cc             	movaps xmm1,xmm4
    2e4f:	66 0f 62 e3          	punpckldq xmm4,xmm3
    2e53:	66 0f 6a cb          	punpckhdq xmm1,xmm3
    2e57:	0f 28 dc             	movaps xmm3,xmm4
    2e5a:	66 0f fd e1          	paddw  xmm4,xmm1
    2e5e:	66 0f f9 cb          	psubw  xmm1,xmm3
    2e62:	41 0f 28 d8          	movaps xmm3,xmm8
    2e66:	66 44 0f 62 c5       	punpckldq xmm8,xmm5
    2e6b:	66 0f 6a dd          	punpckhdq xmm3,xmm5
    2e6f:	41 0f 28 e8          	movaps xmm5,xmm8
    2e73:	66 44 0f fd c3       	paddw  xmm8,xmm3
    2e78:	66 0f f9 dd          	psubw  xmm3,xmm5
    2e7c:	0f 28 e8             	movaps xmm5,xmm0
    2e7f:	66 0f fd c4          	paddw  xmm0,xmm4
    2e83:	66 0f f9 e5          	psubw  xmm4,xmm5
    2e87:	41 0f 28 e9          	movaps xmm5,xmm9
    2e8b:	66 44 0f fd c9       	paddw  xmm9,xmm1
    2e90:	66 0f f9 cd          	psubw  xmm1,xmm5
    2e94:	0f 28 e8             	movaps xmm5,xmm0
    2e97:	0f 16 c4             	movlhps xmm0,xmm4
    2e9a:	66 0f 6d ec          	punpckhqdq xmm5,xmm4
    2e9e:	66 0f ef e4          	pxor   xmm4,xmm4
    2ea2:	66 0f f9 e0          	psubw  xmm4,xmm0
    2ea6:	66 0f ee c4          	pmaxsw xmm0,xmm4
    2eaa:	66 0f ef e4          	pxor   xmm4,xmm4
    2eae:	66 0f f9 e5          	psubw  xmm4,xmm5
    2eb2:	66 0f ee ec          	pmaxsw xmm5,xmm4
    2eb6:	66 0f ee c5          	pmaxsw xmm0,xmm5
    2eba:	41 0f 28 e1          	movaps xmm4,xmm9
    2ebe:	44 0f 16 c9          	movlhps xmm9,xmm1
    2ec2:	66 0f 6d e1          	punpckhqdq xmm4,xmm1
    2ec6:	66 0f ef c9          	pxor   xmm1,xmm1
    2eca:	66 41 0f f9 c9       	psubw  xmm1,xmm9
    2ecf:	66 44 0f ee c9       	pmaxsw xmm9,xmm1
    2ed4:	66 0f ef c9          	pxor   xmm1,xmm1
    2ed8:	66 0f f9 cc          	psubw  xmm1,xmm4
    2edc:	66 0f ee e1          	pmaxsw xmm4,xmm1
    2ee0:	66 44 0f ee cc       	pmaxsw xmm9,xmm4
    2ee5:	0f 28 ce             	movaps xmm1,xmm6
    2ee8:	66 41 0f fd f0       	paddw  xmm6,xmm8
    2eed:	66 44 0f f9 c1       	psubw  xmm8,xmm1
    2ef2:	0f 28 ca             	movaps xmm1,xmm2
    2ef5:	66 0f fd d3          	paddw  xmm2,xmm3
    2ef9:	66 0f f9 d9          	psubw  xmm3,xmm1
    2efd:	0f 28 ce             	movaps xmm1,xmm6
    2f00:	41 0f 16 f0          	movlhps xmm6,xmm8
    2f04:	66 41 0f 6d c8       	punpckhqdq xmm1,xmm8
    2f09:	66 45 0f ef c0       	pxor   xmm8,xmm8
    2f0e:	66 44 0f f9 c6       	psubw  xmm8,xmm6
    2f13:	66 41 0f ee f0       	pmaxsw xmm6,xmm8
    2f18:	66 45 0f ef c0       	pxor   xmm8,xmm8
    2f1d:	66 44 0f f9 c1       	psubw  xmm8,xmm1
    2f22:	66 41 0f ee c8       	pmaxsw xmm1,xmm8
    2f27:	66 0f ee f1          	pmaxsw xmm6,xmm1
    2f2b:	44 0f 28 c2          	movaps xmm8,xmm2
    2f2f:	0f 16 d3             	movlhps xmm2,xmm3
    2f32:	66 44 0f 6d c3       	punpckhqdq xmm8,xmm3
    2f37:	66 0f ef db          	pxor   xmm3,xmm3
    2f3b:	66 0f f9 da          	psubw  xmm3,xmm2
    2f3f:	66 0f ee d3          	pmaxsw xmm2,xmm3
    2f43:	66 0f ef db          	pxor   xmm3,xmm3
    2f47:	66 41 0f f9 d8       	psubw  xmm3,xmm8
    2f4c:	66 44 0f ee c3       	pmaxsw xmm8,xmm3
    2f51:	66 41 0f ee d0       	pmaxsw xmm2,xmm8
    2f56:	66 0f fd c6          	paddw  xmm0,xmm6
    2f5a:	66 41 0f fd c1       	paddw  xmm0,xmm9
    2f5f:	66 0f fd c2          	paddw  xmm0,xmm2
    2f63:	c3                   	ret    
    2f64:	0f 1f 84 00 00 00 00 	nop    DWORD PTR [rax+rax*1+0x0]
    2f6b:	00 
    2f6c:	0f 1f 40 00          	nop    DWORD PTR [rax+0x0]

0000000000002f70 <x264_8_pixel_sa8d_8x8_sse2>:
    2f70:	4c 8d 04 76          	lea    r8,[rsi+rsi*2]
    2f74:	4c 8d 0c 49          	lea    r9,[rcx+rcx*2]
    2f78:	e8 13 fd ff ff       	call   2c90 <x264_8_pixel_sa8d_8x8_internal_sse2>
    2f7d:	66 0f f5 05 00 00 00 	pmaddwd xmm0,XMMWORD PTR [rip+0x0]        # 2f85 <x264_8_pixel_sa8d_8x8_sse2+0x15>
    2f84:	00 
    2f85:	0f 12 f0             	movhlps xmm6,xmm0
    2f88:	66 0f fe c6          	paddd  xmm0,xmm6
    2f8c:	f2 0f 70 f0 4e       	pshuflw xmm6,xmm0,0x4e
    2f91:	66 0f fe c6          	paddd  xmm0,xmm6
    2f95:	66 0f 7e c0          	movd   eax,xmm0
    2f99:	83 c0 01             	add    eax,0x1
    2f9c:	d1 e8                	shr    eax,1
    2f9e:	c3                   	ret    
    2f9f:	90                   	nop

0000000000002fa0 <x264_8_pixel_sa8d_16x16_sse2>:
    2fa0:	4c 8d 04 76          	lea    r8,[rsi+rsi*2]
    2fa4:	4c 8d 0c 49          	lea    r9,[rcx+rcx*2]
    2fa8:	e8 e3 fc ff ff       	call   2c90 <x264_8_pixel_sa8d_8x8_internal_sse2>
    2fad:	48 83 c2 08          	add    rdx,0x8
    2fb1:	48 83 c7 08          	add    rdi,0x8
    2fb5:	44 0f 28 d0          	movaps xmm10,xmm0
    2fb9:	e8 d2 fc ff ff       	call   2c90 <x264_8_pixel_sa8d_8x8_internal_sse2>
    2fbe:	48 8d 14 ca          	lea    rdx,[rdx+rcx*8]
    2fc2:	48 8d 3c f7          	lea    rdi,[rdi+rsi*8]
    2fc6:	66 44 0f dd d0       	paddusw xmm10,xmm0
    2fcb:	e8 c0 fc ff ff       	call   2c90 <x264_8_pixel_sa8d_8x8_internal_sse2>
    2fd0:	48 83 ea 08          	sub    rdx,0x8
    2fd4:	48 83 ef 08          	sub    rdi,0x8
    2fd8:	66 44 0f dd d0       	paddusw xmm10,xmm0
    2fdd:	e8 ae fc ff ff       	call   2c90 <x264_8_pixel_sa8d_8x8_internal_sse2>
    2fe2:	66 44 0f dd d0       	paddusw xmm10,xmm0
    2fe7:	66 41 0f 6f f2       	movdqa xmm6,xmm10
    2fec:	66 0f 72 d6 10       	psrld  xmm6,0x10
    2ff1:	66 41 0f 72 f2 10    	pslld  xmm10,0x10
    2ff7:	66 41 0f 72 d2 10    	psrld  xmm10,0x10
    2ffd:	66 44 0f fe d6       	paddd  xmm10,xmm6
    3002:	41 0f 12 f2          	movhlps xmm6,xmm10
    3006:	66 44 0f fe d6       	paddd  xmm10,xmm6
    300b:	f2 41 0f 70 f2 4e    	pshuflw xmm6,xmm10,0x4e
    3011:	66 44 0f fe d6       	paddd  xmm10,xmm6
    3016:	66 44 0f 7e d0       	movd   eax,xmm10
    301b:	83 c0 01             	add    eax,0x1
    301e:	d1 e8                	shr    eax,1
    3020:	c3                   	ret    
    3021:	0f 1f 84 00 00 00 00 	nop    DWORD PTR [rax+rax*1+0x0]
    3028:	00 
    3029:	0f 1f 80 00 00 00 00 	nop    DWORD PTR [rax+0x0]

0000000000003030 <x264_8_pixel_satd_4x8_sse2>:
    3030:	4c 8d 04 76          	lea    r8,[rsi+rsi*2]
    3034:	4c 8d 0c 49          	lea    r9,[rcx+rcx*2]
    3038:	66 0f 6e 22          	movd   xmm4,DWORD PTR [rdx]
    303c:	66 0f 6e 2c 0a       	movd   xmm5,DWORD PTR [rdx+rcx*1]
    3041:	66 0f 6e 34 4a       	movd   xmm6,DWORD PTR [rdx+rcx*2]
    3046:	4c 01 ca             	add    rdx,r9
    3049:	66 0f 6e 07          	movd   xmm0,DWORD PTR [rdi]
    304d:	66 0f 6e 0c 37       	movd   xmm1,DWORD PTR [rdi+rsi*1]
    3052:	66 0f 6e 14 77       	movd   xmm2,DWORD PTR [rdi+rsi*2]
    3057:	4c 01 c7             	add    rdi,r8
    305a:	66 0f 6e 1c 0a       	movd   xmm3,DWORD PTR [rdx+rcx*1]
    305f:	66 0f 62 e3          	punpckldq xmm4,xmm3
    3063:	66 0f 6e 1c 37       	movd   xmm3,DWORD PTR [rdi+rsi*1]
    3068:	66 0f 62 c3          	punpckldq xmm0,xmm3
    306c:	66 0f 6e 1c 4a       	movd   xmm3,DWORD PTR [rdx+rcx*2]
    3071:	66 0f 62 eb          	punpckldq xmm5,xmm3
    3075:	66 0f 6e 1c 77       	movd   xmm3,DWORD PTR [rdi+rsi*2]
    307a:	66 0f 62 cb          	punpckldq xmm1,xmm3
    307e:	66 0f 60 c7          	punpcklbw xmm0,xmm7
    3082:	66 0f 60 e7          	punpcklbw xmm4,xmm7
    3086:	66 0f 60 cf          	punpcklbw xmm1,xmm7
    308a:	66 0f 60 ef          	punpcklbw xmm5,xmm7
    308e:	66 0f f9 c4          	psubw  xmm0,xmm4
    3092:	66 0f f9 cd          	psubw  xmm1,xmm5
    3096:	66 0f 6e 2a          	movd   xmm5,DWORD PTR [rdx]
    309a:	4c 01 ca             	add    rdx,r9
    309d:	66 0f 6e 1f          	movd   xmm3,DWORD PTR [rdi]
    30a1:	4c 01 c7             	add    rdi,r8
    30a4:	66 0f 6e 22          	movd   xmm4,DWORD PTR [rdx]
    30a8:	66 0f 62 f4          	punpckldq xmm6,xmm4
    30ac:	66 0f 6e 27          	movd   xmm4,DWORD PTR [rdi]
    30b0:	66 0f 62 d4          	punpckldq xmm2,xmm4
    30b4:	66 0f 6e 24 0a       	movd   xmm4,DWORD PTR [rdx+rcx*1]
    30b9:	66 0f 62 ec          	punpckldq xmm5,xmm4
    30bd:	66 0f 6e 24 37       	movd   xmm4,DWORD PTR [rdi+rsi*1]
    30c2:	66 0f 62 dc          	punpckldq xmm3,xmm4
    30c6:	66 0f 60 d7          	punpcklbw xmm2,xmm7
    30ca:	66 0f 60 f7          	punpcklbw xmm6,xmm7
    30ce:	66 0f 60 df          	punpcklbw xmm3,xmm7
    30d2:	66 0f 60 ef          	punpcklbw xmm5,xmm7
    30d6:	66 0f f9 d6          	psubw  xmm2,xmm6
    30da:	66 0f f9 dd          	psubw  xmm3,xmm5
    30de:	0f 28 e0             	movaps xmm4,xmm0
    30e1:	66 0f fd c1          	paddw  xmm0,xmm1
    30e5:	66 0f f9 cc          	psubw  xmm1,xmm4
    30e9:	0f 28 e2             	movaps xmm4,xmm2
    30ec:	66 0f fd d3          	paddw  xmm2,xmm3
    30f0:	66 0f f9 dc          	psubw  xmm3,xmm4
    30f4:	0f 28 e0             	movaps xmm4,xmm0
    30f7:	66 0f 61 c1          	punpcklwd xmm0,xmm1
    30fb:	66 0f 69 e1          	punpckhwd xmm4,xmm1
    30ff:	0f 28 ca             	movaps xmm1,xmm2
    3102:	66 0f 61 d3          	punpcklwd xmm2,xmm3
    3106:	66 0f 69 cb          	punpckhwd xmm1,xmm3
    310a:	0f 28 d8             	movaps xmm3,xmm0
    310d:	66 0f fd c2          	paddw  xmm0,xmm2
    3111:	66 0f f9 d3          	psubw  xmm2,xmm3
    3115:	0f 28 dc             	movaps xmm3,xmm4
    3118:	66 0f fd e1          	paddw  xmm4,xmm1
    311c:	66 0f f9 cb          	psubw  xmm1,xmm3
    3120:	0f 28 d8             	movaps xmm3,xmm0
    3123:	66 0f 62 c2          	punpckldq xmm0,xmm2
    3127:	66 0f 6a da          	punpckhdq xmm3,xmm2
    312b:	0f 28 d0             	movaps xmm2,xmm0
    312e:	66 0f fd c3          	paddw  xmm0,xmm3
    3132:	66 0f f9 da          	psubw  xmm3,xmm2
    3136:	0f 28 d4             	movaps xmm2,xmm4
    3139:	66 0f 62 e1          	punpckldq xmm4,xmm1
    313d:	66 0f 6a d1          	punpckhdq xmm2,xmm1
    3141:	0f 28 cc             	movaps xmm1,xmm4
    3144:	66 0f fd e2          	paddw  xmm4,xmm2
    3148:	66 0f f9 d1          	psubw  xmm2,xmm1
    314c:	0f 28 c8             	movaps xmm1,xmm0
    314f:	0f 16 c4             	movlhps xmm0,xmm4
    3152:	66 0f 6d cc          	punpckhqdq xmm1,xmm4
    3156:	66 0f ef e4          	pxor   xmm4,xmm4
    315a:	66 0f f9 e0          	psubw  xmm4,xmm0
    315e:	66 0f ee c4          	pmaxsw xmm0,xmm4
    3162:	66 0f ef e4          	pxor   xmm4,xmm4
    3166:	66 0f f9 e1          	psubw  xmm4,xmm1
    316a:	66 0f ee cc          	pmaxsw xmm1,xmm4
    316e:	66 0f ee c1          	pmaxsw xmm0,xmm1
    3172:	0f 28 e3             	movaps xmm4,xmm3
    3175:	0f 16 da             	movlhps xmm3,xmm2
    3178:	66 0f 6d e2          	punpckhqdq xmm4,xmm2
    317c:	66 0f ef d2          	pxor   xmm2,xmm2
    3180:	66 0f f9 d3          	psubw  xmm2,xmm3
    3184:	66 0f ee da          	pmaxsw xmm3,xmm2
    3188:	66 0f ef d2          	pxor   xmm2,xmm2
    318c:	66 0f f9 d4          	psubw  xmm2,xmm4
    3190:	66 0f ee e2          	pmaxsw xmm4,xmm2
    3194:	66 0f ee dc          	pmaxsw xmm3,xmm4
    3198:	66 0f fd c3          	paddw  xmm0,xmm3
    319c:	66 0f f5 05 00 00 00 	pmaddwd xmm0,XMMWORD PTR [rip+0x0]        # 31a4 <x264_8_pixel_satd_4x8_sse2+0x174>
    31a3:	00 
    31a4:	0f 12 c8             	movhlps xmm1,xmm0
    31a7:	66 0f fe c1          	paddd  xmm0,xmm1
    31ab:	f2 0f 70 c8 4e       	pshuflw xmm1,xmm0,0x4e
    31b0:	66 0f fe c1          	paddd  xmm0,xmm1
    31b4:	66 0f 7e c0          	movd   eax,xmm0
    31b8:	c3                   	ret    
    31b9:	0f 1f 80 00 00 00 00 	nop    DWORD PTR [rax+0x0]

00000000000031c0 <x264_8_pixel_satd_4x16_sse2>:
    31c0:	4c 8d 04 76          	lea    r8,[rsi+rsi*2]
    31c4:	4c 8d 0c 49          	lea    r9,[rcx+rcx*2]
    31c8:	66 0f 6e 22          	movd   xmm4,DWORD PTR [rdx]
    31cc:	66 0f 6e 2c 0a       	movd   xmm5,DWORD PTR [rdx+rcx*1]
    31d1:	66 0f 6e 34 4a       	movd   xmm6,DWORD PTR [rdx+rcx*2]
    31d6:	4c 01 ca             	add    rdx,r9
    31d9:	66 0f 6e 07          	movd   xmm0,DWORD PTR [rdi]
    31dd:	66 0f 6e 0c 37       	movd   xmm1,DWORD PTR [rdi+rsi*1]
    31e2:	66 0f 6e 14 77       	movd   xmm2,DWORD PTR [rdi+rsi*2]
    31e7:	4c 01 c7             	add    rdi,r8
    31ea:	66 0f 6e 1c 0a       	movd   xmm3,DWORD PTR [rdx+rcx*1]
    31ef:	66 0f 62 e3          	punpckldq xmm4,xmm3
    31f3:	66 0f 6e 1c 37       	movd   xmm3,DWORD PTR [rdi+rsi*1]
    31f8:	66 0f 62 c3          	punpckldq xmm0,xmm3
    31fc:	66 0f 6e 1c 4a       	movd   xmm3,DWORD PTR [rdx+rcx*2]
    3201:	66 0f 62 eb          	punpckldq xmm5,xmm3
    3205:	66 0f 6e 1c 77       	movd   xmm3,DWORD PTR [rdi+rsi*2]
    320a:	66 0f 62 cb          	punpckldq xmm1,xmm3
    320e:	66 0f 60 c7          	punpcklbw xmm0,xmm7
    3212:	66 0f 60 e7          	punpcklbw xmm4,xmm7
    3216:	66 0f 60 cf          	punpcklbw xmm1,xmm7
    321a:	66 0f 60 ef          	punpcklbw xmm5,xmm7
    321e:	66 0f f9 c4          	psubw  xmm0,xmm4
    3222:	66 0f f9 cd          	psubw  xmm1,xmm5
    3226:	66 0f 6e 2a          	movd   xmm5,DWORD PTR [rdx]
    322a:	4c 01 ca             	add    rdx,r9
    322d:	66 0f 6e 1f          	movd   xmm3,DWORD PTR [rdi]
    3231:	4c 01 c7             	add    rdi,r8
    3234:	66 0f 6e 22          	movd   xmm4,DWORD PTR [rdx]
    3238:	66 0f 62 f4          	punpckldq xmm6,xmm4
    323c:	66 0f 6e 27          	movd   xmm4,DWORD PTR [rdi]
    3240:	66 0f 62 d4          	punpckldq xmm2,xmm4
    3244:	66 0f 6e 24 0a       	movd   xmm4,DWORD PTR [rdx+rcx*1]
    3249:	66 0f 62 ec          	punpckldq xmm5,xmm4
    324d:	66 0f 6e 24 37       	movd   xmm4,DWORD PTR [rdi+rsi*1]
    3252:	66 0f 62 dc          	punpckldq xmm3,xmm4
    3256:	66 0f 60 d7          	punpcklbw xmm2,xmm7
    325a:	66 0f 60 f7          	punpcklbw xmm6,xmm7
    325e:	66 0f 60 df          	punpcklbw xmm3,xmm7
    3262:	66 0f 60 ef          	punpcklbw xmm5,xmm7
    3266:	66 0f f9 d6          	psubw  xmm2,xmm6
    326a:	66 0f f9 dd          	psubw  xmm3,xmm5
    326e:	0f 28 e0             	movaps xmm4,xmm0
    3271:	66 0f fd c1          	paddw  xmm0,xmm1
    3275:	66 0f f9 cc          	psubw  xmm1,xmm4
    3279:	0f 28 e2             	movaps xmm4,xmm2
    327c:	66 0f fd d3          	paddw  xmm2,xmm3
    3280:	66 0f f9 dc          	psubw  xmm3,xmm4
    3284:	0f 28 e0             	movaps xmm4,xmm0
    3287:	66 0f 61 c1          	punpcklwd xmm0,xmm1
    328b:	66 0f 69 e1          	punpckhwd xmm4,xmm1
    328f:	0f 28 ca             	movaps xmm1,xmm2
    3292:	66 0f 61 d3          	punpcklwd xmm2,xmm3
    3296:	66 0f 69 cb          	punpckhwd xmm1,xmm3
    329a:	0f 28 d8             	movaps xmm3,xmm0
    329d:	66 0f fd c2          	paddw  xmm0,xmm2
    32a1:	66 0f f9 d3          	psubw  xmm2,xmm3
    32a5:	0f 28 dc             	movaps xmm3,xmm4
    32a8:	66 0f fd e1          	paddw  xmm4,xmm1
    32ac:	66 0f f9 cb          	psubw  xmm1,xmm3
    32b0:	0f 28 d8             	movaps xmm3,xmm0
    32b3:	66 0f 62 c2          	punpckldq xmm0,xmm2
    32b7:	66 0f 6a da          	punpckhdq xmm3,xmm2
    32bb:	0f 28 d0             	movaps xmm2,xmm0
    32be:	66 0f fd c3          	paddw  xmm0,xmm3
    32c2:	66 0f f9 da          	psubw  xmm3,xmm2
    32c6:	0f 28 d4             	movaps xmm2,xmm4
    32c9:	66 0f 62 e1          	punpckldq xmm4,xmm1
    32cd:	66 0f 6a d1          	punpckhdq xmm2,xmm1
    32d1:	0f 28 cc             	movaps xmm1,xmm4
    32d4:	66 0f fd e2          	paddw  xmm4,xmm2
    32d8:	66 0f f9 d1          	psubw  xmm2,xmm1
    32dc:	0f 28 c8             	movaps xmm1,xmm0
    32df:	0f 16 c4             	movlhps xmm0,xmm4
    32e2:	66 0f 6d cc          	punpckhqdq xmm1,xmm4
    32e6:	66 0f ef e4          	pxor   xmm4,xmm4
    32ea:	66 0f f9 e0          	psubw  xmm4,xmm0
    32ee:	66 0f ee c4          	pmaxsw xmm0,xmm4
    32f2:	66 0f ef e4          	pxor   xmm4,xmm4
    32f6:	66 0f f9 e1          	psubw  xmm4,xmm1
    32fa:	66 0f ee cc          	pmaxsw xmm1,xmm4
    32fe:	66 0f ee c1          	pmaxsw xmm0,xmm1
    3302:	0f 28 e3             	movaps xmm4,xmm3
    3305:	0f 16 da             	movlhps xmm3,xmm2
    3308:	66 0f 6d e2          	punpckhqdq xmm4,xmm2
    330c:	66 0f ef d2          	pxor   xmm2,xmm2
    3310:	66 0f f9 d3          	psubw  xmm2,xmm3
    3314:	66 0f ee da          	pmaxsw xmm3,xmm2
    3318:	66 0f ef d2          	pxor   xmm2,xmm2
    331c:	66 0f f9 d4          	psubw  xmm2,xmm4
    3320:	66 0f ee e2          	pmaxsw xmm4,xmm2
    3324:	66 0f ee dc          	pmaxsw xmm3,xmm4
    3328:	66 0f fd c3          	paddw  xmm0,xmm3
    332c:	48 8d 3c 77          	lea    rdi,[rdi+rsi*2]
    3330:	48 8d 14 4a          	lea    rdx,[rdx+rcx*2]
    3334:	66 0f 6e 12          	movd   xmm2,DWORD PTR [rdx]
    3338:	66 0f 6e 2c 0a       	movd   xmm5,DWORD PTR [rdx+rcx*1]
    333d:	66 0f 6e 34 4a       	movd   xmm6,DWORD PTR [rdx+rcx*2]
    3342:	4c 01 ca             	add    rdx,r9
    3345:	66 0f 6e 3f          	movd   xmm7,DWORD PTR [rdi]
    3349:	66 0f 6e 0c 37       	movd   xmm1,DWORD PTR [rdi+rsi*1]
    334e:	66 0f 6e 1c 77       	movd   xmm3,DWORD PTR [rdi+rsi*2]
    3353:	4c 01 c7             	add    rdi,r8
    3356:	66 0f 6e 24 0a       	movd   xmm4,DWORD PTR [rdx+rcx*1]
    335b:	66 0f 62 d4          	punpckldq xmm2,xmm4
    335f:	66 0f 6e 24 37       	movd   xmm4,DWORD PTR [rdi+rsi*1]
    3364:	66 0f 62 fc          	punpckldq xmm7,xmm4
    3368:	66 0f 6e 24 4a       	movd   xmm4,DWORD PTR [rdx+rcx*2]
    336d:	66 0f 62 ec          	punpckldq xmm5,xmm4
    3371:	66 0f 6e 24 77       	movd   xmm4,DWORD PTR [rdi+rsi*2]
    3376:	66 0f 62 cc          	punpckldq xmm1,xmm4
    337a:	66 0f 60 f8          	punpcklbw xmm7,xmm0
    337e:	66 0f 60 d0          	punpcklbw xmm2,xmm0
    3382:	66 0f 60 c8          	punpcklbw xmm1,xmm0
    3386:	66 0f 60 e8          	punpcklbw xmm5,xmm0
    338a:	66 0f f9 fa          	psubw  xmm7,xmm2
    338e:	66 0f f9 cd          	psubw  xmm1,xmm5
    3392:	66 0f 6e 2a          	movd   xmm5,DWORD PTR [rdx]
    3396:	4c 01 ca             	add    rdx,r9
    3399:	66 0f 6e 27          	movd   xmm4,DWORD PTR [rdi]
    339d:	4c 01 c7             	add    rdi,r8
    33a0:	66 0f 6e 12          	movd   xmm2,DWORD PTR [rdx]
    33a4:	66 0f 62 f2          	punpckldq xmm6,xmm2
    33a8:	66 0f 6e 17          	movd   xmm2,DWORD PTR [rdi]
    33ac:	66 0f 62 da          	punpckldq xmm3,xmm2
    33b0:	66 0f 6e 14 0a       	movd   xmm2,DWORD PTR [rdx+rcx*1]
    33b5:	66 0f 62 ea          	punpckldq xmm5,xmm2
    33b9:	66 0f 6e 14 37       	movd   xmm2,DWORD PTR [rdi+rsi*1]
    33be:	66 0f 62 e2          	punpckldq xmm4,xmm2
    33c2:	66 0f 60 d8          	punpcklbw xmm3,xmm0
    33c6:	66 0f 60 f0          	punpcklbw xmm6,xmm0
    33ca:	66 0f 60 e0          	punpcklbw xmm4,xmm0
    33ce:	66 0f 60 e8          	punpcklbw xmm5,xmm0
    33d2:	66 0f f9 de          	psubw  xmm3,xmm6
    33d6:	66 0f f9 e5          	psubw  xmm4,xmm5
    33da:	0f 28 d7             	movaps xmm2,xmm7
    33dd:	66 0f fd f9          	paddw  xmm7,xmm1
    33e1:	66 0f f9 ca          	psubw  xmm1,xmm2
    33e5:	0f 28 d3             	movaps xmm2,xmm3
    33e8:	66 0f fd dc          	paddw  xmm3,xmm4
    33ec:	66 0f f9 e2          	psubw  xmm4,xmm2
    33f0:	0f 28 d7             	movaps xmm2,xmm7
    33f3:	66 0f 61 f9          	punpcklwd xmm7,xmm1
    33f7:	66 0f 69 d1          	punpckhwd xmm2,xmm1
    33fb:	0f 28 cb             	movaps xmm1,xmm3
    33fe:	66 0f 61 dc          	punpcklwd xmm3,xmm4
    3402:	66 0f 69 cc          	punpckhwd xmm1,xmm4
    3406:	0f 28 e7             	movaps xmm4,xmm7
    3409:	66 0f fd fb          	paddw  xmm7,xmm3
    340d:	66 0f f9 dc          	psubw  xmm3,xmm4
    3411:	0f 28 e2             	movaps xmm4,xmm2
    3414:	66 0f fd d1          	paddw  xmm2,xmm1
    3418:	66 0f f9 cc          	psubw  xmm1,xmm4
    341c:	0f 28 e7             	movaps xmm4,xmm7
    341f:	66 0f 62 fb          	punpckldq xmm7,xmm3
    3423:	66 0f 6a e3          	punpckhdq xmm4,xmm3
    3427:	0f 28 df             	movaps xmm3,xmm7
    342a:	66 0f fd fc          	paddw  xmm7,xmm4
    342e:	66 0f f9 e3          	psubw  xmm4,xmm3
    3432:	0f 28 da             	movaps xmm3,xmm2
    3435:	66 0f 62 d1          	punpckldq xmm2,xmm1
    3439:	66 0f 6a d9          	punpckhdq xmm3,xmm1
    343d:	0f 28 ca             	movaps xmm1,xmm2
    3440:	66 0f fd d3          	paddw  xmm2,xmm3
    3444:	66 0f f9 d9          	psubw  xmm3,xmm1
    3448:	0f 28 cf             	movaps xmm1,xmm7
    344b:	0f 16 fa             	movlhps xmm7,xmm2
    344e:	66 0f 6d ca          	punpckhqdq xmm1,xmm2
    3452:	66 0f ef d2          	pxor   xmm2,xmm2
    3456:	66 0f f9 d7          	psubw  xmm2,xmm7
    345a:	66 0f ee fa          	pmaxsw xmm7,xmm2
    345e:	66 0f ef d2          	pxor   xmm2,xmm2
    3462:	66 0f f9 d1          	psubw  xmm2,xmm1
    3466:	66 0f ee ca          	pmaxsw xmm1,xmm2
    346a:	66 0f ee f9          	pmaxsw xmm7,xmm1
    346e:	0f 28 d4             	movaps xmm2,xmm4
    3471:	0f 16 e3             	movlhps xmm4,xmm3
    3474:	66 0f 6d d3          	punpckhqdq xmm2,xmm3
    3478:	66 0f ef db          	pxor   xmm3,xmm3
    347c:	66 0f f9 dc          	psubw  xmm3,xmm4
    3480:	66 0f ee e3          	pmaxsw xmm4,xmm3
    3484:	66 0f ef db          	pxor   xmm3,xmm3
    3488:	66 0f f9 da          	psubw  xmm3,xmm2
    348c:	66 0f ee d3          	pmaxsw xmm2,xmm3
    3490:	66 0f ee e2          	pmaxsw xmm4,xmm2
    3494:	66 0f fd c7          	paddw  xmm0,xmm7
    3498:	66 0f fd c4          	paddw  xmm0,xmm4
    349c:	66 0f f5 05 00 00 00 	pmaddwd xmm0,XMMWORD PTR [rip+0x0]        # 34a4 <x264_8_pixel_satd_4x16_sse2+0x2e4>
    34a3:	00 
    34a4:	0f 12 c8             	movhlps xmm1,xmm0
    34a7:	66 0f fe c1          	paddd  xmm0,xmm1
    34ab:	f2 0f 70 c8 4e       	pshuflw xmm1,xmm0,0x4e
    34b0:	66 0f fe c1          	paddd  xmm0,xmm1
    34b4:	66 0f 7e c0          	movd   eax,xmm0
    34b8:	c3                   	ret    
    34b9:	0f 1f 80 00 00 00 00 	nop    DWORD PTR [rax+0x0]

00000000000034c0 <x264_8_pixel_satd_8x8_internal_sse2>:
    34c0:	f3 0f 7e 07          	movq   xmm0,QWORD PTR [rdi]
    34c4:	f3 0f 7e 22          	movq   xmm4,QWORD PTR [rdx]
    34c8:	66 0f 60 c7          	punpcklbw xmm0,xmm7
    34cc:	66 0f 60 e7          	punpcklbw xmm4,xmm7
    34d0:	66 0f f9 c4          	psubw  xmm0,xmm4
    34d4:	f3 0f 7e 0c 37       	movq   xmm1,QWORD PTR [rdi+rsi*1]
    34d9:	f3 0f 7e 2c 0a       	movq   xmm5,QWORD PTR [rdx+rcx*1]
    34de:	66 0f 60 cf          	punpcklbw xmm1,xmm7
    34e2:	66 0f 60 ef          	punpcklbw xmm5,xmm7
    34e6:	66 0f f9 cd          	psubw  xmm1,xmm5
    34ea:	f3 0f 7e 14 77       	movq   xmm2,QWORD PTR [rdi+rsi*2]
    34ef:	f3 0f 7e 24 4a       	movq   xmm4,QWORD PTR [rdx+rcx*2]
    34f4:	66 0f 60 d7          	punpcklbw xmm2,xmm7
    34f8:	66 0f 60 e7          	punpcklbw xmm4,xmm7
    34fc:	66 0f f9 d4          	psubw  xmm2,xmm4
    3500:	f3 42 0f 7e 1c 07    	movq   xmm3,QWORD PTR [rdi+r8*1]
    3506:	f3 42 0f 7e 2c 0a    	movq   xmm5,QWORD PTR [rdx+r9*1]
    350c:	66 0f 60 df          	punpcklbw xmm3,xmm7
    3510:	66 0f 60 ef          	punpcklbw xmm5,xmm7
    3514:	66 0f f9 dd          	psubw  xmm3,xmm5
    3518:	48 8d 3c b7          	lea    rdi,[rdi+rsi*4]
    351c:	48 8d 14 8a          	lea    rdx,[rdx+rcx*4]
    3520:	0f 28 e0             	movaps xmm4,xmm0
    3523:	66 0f fd c1          	paddw  xmm0,xmm1
    3527:	66 0f f9 cc          	psubw  xmm1,xmm4
    352b:	0f 28 e2             	movaps xmm4,xmm2
    352e:	66 0f fd d3          	paddw  xmm2,xmm3
    3532:	66 0f f9 dc          	psubw  xmm3,xmm4
    3536:	0f 28 e0             	movaps xmm4,xmm0
    3539:	66 0f 61 c1          	punpcklwd xmm0,xmm1
    353d:	66 0f 69 e1          	punpckhwd xmm4,xmm1
    3541:	0f 28 ca             	movaps xmm1,xmm2
    3544:	66 0f 61 d3          	punpcklwd xmm2,xmm3
    3548:	66 0f 69 cb          	punpckhwd xmm1,xmm3
    354c:	0f 28 d8             	movaps xmm3,xmm0
    354f:	66 0f fd c2          	paddw  xmm0,xmm2
    3553:	66 0f f9 d3          	psubw  xmm2,xmm3
    3557:	0f 28 dc             	movaps xmm3,xmm4
    355a:	66 0f fd e1          	paddw  xmm4,xmm1
    355e:	66 0f f9 cb          	psubw  xmm1,xmm3
    3562:	0f 28 d8             	movaps xmm3,xmm0
    3565:	66 0f 62 c2          	punpckldq xmm0,xmm2
    3569:	66 0f 6a da          	punpckhdq xmm3,xmm2
    356d:	0f 28 d0             	movaps xmm2,xmm0
    3570:	66 0f fd c3          	paddw  xmm0,xmm3
    3574:	66 0f f9 da          	psubw  xmm3,xmm2
    3578:	0f 28 d4             	movaps xmm2,xmm4
    357b:	66 0f 62 e1          	punpckldq xmm4,xmm1
    357f:	66 0f 6a d1          	punpckhdq xmm2,xmm1
    3583:	0f 28 cc             	movaps xmm1,xmm4
    3586:	66 0f fd e2          	paddw  xmm4,xmm2
    358a:	66 0f f9 d1          	psubw  xmm2,xmm1
    358e:	0f 28 c8             	movaps xmm1,xmm0
    3591:	0f 16 c4             	movlhps xmm0,xmm4
    3594:	66 0f 6d cc          	punpckhqdq xmm1,xmm4
    3598:	66 0f ef e4          	pxor   xmm4,xmm4
    359c:	66 0f f9 e0          	psubw  xmm4,xmm0
    35a0:	66 0f ee c4          	pmaxsw xmm0,xmm4
    35a4:	66 0f ef e4          	pxor   xmm4,xmm4
    35a8:	66 0f f9 e1          	psubw  xmm4,xmm1
    35ac:	66 0f ee cc          	pmaxsw xmm1,xmm4
    35b0:	66 0f ee c1          	pmaxsw xmm0,xmm1
    35b4:	0f 28 e3             	movaps xmm4,xmm3
    35b7:	0f 16 da             	movlhps xmm3,xmm2
    35ba:	66 0f 6d e2          	punpckhqdq xmm4,xmm2
    35be:	66 0f ef d2          	pxor   xmm2,xmm2
    35c2:	66 0f f9 d3          	psubw  xmm2,xmm3
    35c6:	66 0f ee da          	pmaxsw xmm3,xmm2
    35ca:	66 0f ef d2          	pxor   xmm2,xmm2
    35ce:	66 0f f9 d4          	psubw  xmm2,xmm4
    35d2:	66 0f ee e2          	pmaxsw xmm4,xmm2
    35d6:	66 0f ee dc          	pmaxsw xmm3,xmm4
    35da:	66 0f fd f0          	paddw  xmm6,xmm0
    35de:	66 0f fd f3          	paddw  xmm6,xmm3
    35e2:	f3 0f 7e 07          	movq   xmm0,QWORD PTR [rdi]
    35e6:	f3 0f 7e 12          	movq   xmm2,QWORD PTR [rdx]
    35ea:	66 0f 60 c7          	punpcklbw xmm0,xmm7
    35ee:	66 0f 60 d7          	punpcklbw xmm2,xmm7
    35f2:	66 0f f9 c2          	psubw  xmm0,xmm2
    35f6:	f3 0f 7e 0c 37       	movq   xmm1,QWORD PTR [rdi+rsi*1]
    35fb:	f3 0f 7e 2c 0a       	movq   xmm5,QWORD PTR [rdx+rcx*1]
    3600:	66 0f 60 cf          	punpcklbw xmm1,xmm7
    3604:	66 0f 60 ef          	punpcklbw xmm5,xmm7
    3608:	66 0f f9 cd          	psubw  xmm1,xmm5
    360c:	f3 0f 7e 1c 77       	movq   xmm3,QWORD PTR [rdi+rsi*2]
    3611:	f3 0f 7e 14 4a       	movq   xmm2,QWORD PTR [rdx+rcx*2]
    3616:	66 0f 60 df          	punpcklbw xmm3,xmm7
    361a:	66 0f 60 d7          	punpcklbw xmm2,xmm7
    361e:	66 0f f9 da          	psubw  xmm3,xmm2
    3622:	f3 42 0f 7e 24 07    	movq   xmm4,QWORD PTR [rdi+r8*1]
    3628:	f3 42 0f 7e 2c 0a    	movq   xmm5,QWORD PTR [rdx+r9*1]
    362e:	66 0f 60 e7          	punpcklbw xmm4,xmm7
    3632:	66 0f 60 ef          	punpcklbw xmm5,xmm7
    3636:	66 0f f9 e5          	psubw  xmm4,xmm5
    363a:	48 8d 3c b7          	lea    rdi,[rdi+rsi*4]
    363e:	48 8d 14 8a          	lea    rdx,[rdx+rcx*4]
    3642:	0f 28 d0             	movaps xmm2,xmm0
    3645:	66 0f fd c1          	paddw  xmm0,xmm1
    3649:	66 0f f9 ca          	psubw  xmm1,xmm2
    364d:	0f 28 d3             	movaps xmm2,xmm3
    3650:	66 0f fd dc          	paddw  xmm3,xmm4
    3654:	66 0f f9 e2          	psubw  xmm4,xmm2
    3658:	0f 28 d0             	movaps xmm2,xmm0
    365b:	66 0f 61 c1          	punpcklwd xmm0,xmm1
    365f:	66 0f 69 d1          	punpckhwd xmm2,xmm1
    3663:	0f 28 cb             	movaps xmm1,xmm3
    3666:	66 0f 61 dc          	punpcklwd xmm3,xmm4
    366a:	66 0f 69 cc          	punpckhwd xmm1,xmm4
    366e:	0f 28 e0             	movaps xmm4,xmm0
    3671:	66 0f fd c3          	paddw  xmm0,xmm3
    3675:	66 0f f9 dc          	psubw  xmm3,xmm4
    3679:	0f 28 e2             	movaps xmm4,xmm2
    367c:	66 0f fd d1          	paddw  xmm2,xmm1
    3680:	66 0f f9 cc          	psubw  xmm1,xmm4
    3684:	0f 28 e0             	movaps xmm4,xmm0
    3687:	66 0f 62 c3          	punpckldq xmm0,xmm3
    368b:	66 0f 6a e3          	punpckhdq xmm4,xmm3
    368f:	0f 28 d8             	movaps xmm3,xmm0
    3692:	66 0f fd c4          	paddw  xmm0,xmm4
    3696:	66 0f f9 e3          	psubw  xmm4,xmm3
    369a:	0f 28 da             	movaps xmm3,xmm2
    369d:	66 0f 62 d1          	punpckldq xmm2,xmm1
    36a1:	66 0f 6a d9          	punpckhdq xmm3,xmm1
    36a5:	0f 28 ca             	movaps xmm1,xmm2
    36a8:	66 0f fd d3          	paddw  xmm2,xmm3
    36ac:	66 0f f9 d9          	psubw  xmm3,xmm1
    36b0:	0f 28 c8             	movaps xmm1,xmm0
    36b3:	0f 16 c2             	movlhps xmm0,xmm2
    36b6:	66 0f 6d ca          	punpckhqdq xmm1,xmm2
    36ba:	66 0f ef d2          	pxor   xmm2,xmm2
    36be:	66 0f f9 d0          	psubw  xmm2,xmm0
    36c2:	66 0f ee c2          	pmaxsw xmm0,xmm2
    36c6:	66 0f ef d2          	pxor   xmm2,xmm2
    36ca:	66 0f f9 d1          	psubw  xmm2,xmm1
    36ce:	66 0f ee ca          	pmaxsw xmm1,xmm2
    36d2:	66 0f ee c1          	pmaxsw xmm0,xmm1
    36d6:	0f 28 d4             	movaps xmm2,xmm4
    36d9:	0f 16 e3             	movlhps xmm4,xmm3
    36dc:	66 0f 6d d3          	punpckhqdq xmm2,xmm3
    36e0:	66 0f ef db          	pxor   xmm3,xmm3
    36e4:	66 0f f9 dc          	psubw  xmm3,xmm4
    36e8:	66 0f ee e3          	pmaxsw xmm4,xmm3
    36ec:	66 0f ef db          	pxor   xmm3,xmm3
    36f0:	66 0f f9 da          	psubw  xmm3,xmm2
    36f4:	66 0f ee d3          	pmaxsw xmm2,xmm3
    36f8:	66 0f ee e2          	pmaxsw xmm4,xmm2
    36fc:	66 0f fd f0          	paddw  xmm6,xmm0
    3700:	66 0f fd f4          	paddw  xmm6,xmm4
    3704:	c3                   	ret    
    3705:	0f 1f 84 00 00 00 00 	nop    DWORD PTR [rax+rax*1+0x0]
    370c:	00 
    370d:	0f 1f 00             	nop    DWORD PTR [rax]

0000000000003710 <x264_8_pixel_satd_16x4_internal_sse2>:
    3710:	0f 10 12             	movups xmm2,XMMWORD PTR [rdx]
    3713:	0f 28 27             	movaps xmm4,XMMWORD PTR [rdi]
    3716:	66 0f 6f cf          	movdqa xmm1,xmm7
    371a:	66 0f db ca          	pand   xmm1,xmm2
    371e:	66 0f 6f c7          	movdqa xmm0,xmm7
    3722:	66 0f db c4          	pand   xmm0,xmm4
    3726:	66 0f 71 d4 08       	psrlw  xmm4,0x8
    372b:	66 0f 71 d2 08       	psrlw  xmm2,0x8
    3730:	66 0f f9 c1          	psubw  xmm0,xmm1
    3734:	66 0f f9 e2          	psubw  xmm4,xmm2
    3738:	0f 28 c8             	movaps xmm1,xmm0
    373b:	66 0f fd c4          	paddw  xmm0,xmm4
    373f:	66 0f f9 e1          	psubw  xmm4,xmm1
    3743:	0f 10 1c 0a          	movups xmm3,XMMWORD PTR [rdx+rcx*1]
    3747:	44 0f 28 04 37       	movaps xmm8,XMMWORD PTR [rdi+rsi*1]
    374c:	66 0f 6f d7          	movdqa xmm2,xmm7
    3750:	66 0f db d3          	pand   xmm2,xmm3
    3754:	66 0f 6f cf          	movdqa xmm1,xmm7
    3758:	66 41 0f db c8       	pand   xmm1,xmm8
    375d:	66 41 0f 71 d0 08    	psrlw  xmm8,0x8
    3763:	66 0f 71 d3 08       	psrlw  xmm3,0x8
    3768:	66 0f f9 ca          	psubw  xmm1,xmm2
    376c:	66 44 0f f9 c3       	psubw  xmm8,xmm3
    3771:	0f 28 d1             	movaps xmm2,xmm1
    3774:	66 41 0f fd c8       	paddw  xmm1,xmm8
    3779:	66 44 0f f9 c2       	psubw  xmm8,xmm2
    377e:	0f 10 34 4a          	movups xmm6,XMMWORD PTR [rdx+rcx*2]
    3782:	0f 28 2c 77          	movaps xmm5,XMMWORD PTR [rdi+rsi*2]
    3786:	66 0f 6f df          	movdqa xmm3,xmm7
    378a:	66 0f db de          	pand   xmm3,xmm6
    378e:	66 0f 6f d7          	movdqa xmm2,xmm7
    3792:	66 0f db d5          	pand   xmm2,xmm5
    3796:	66 0f 71 d5 08       	psrlw  xmm5,0x8
    379b:	66 0f 71 d6 08       	psrlw  xmm6,0x8
    37a0:	66 0f f9 d3          	psubw  xmm2,xmm3
    37a4:	66 0f f9 ee          	psubw  xmm5,xmm6
    37a8:	0f 28 da             	movaps xmm3,xmm2
    37ab:	66 0f fd d5          	paddw  xmm2,xmm5
    37af:	66 0f f9 eb          	psubw  xmm5,xmm3
    37b3:	42 0f 10 34 0a       	movups xmm6,XMMWORD PTR [rdx+r9*1]
    37b8:	46 0f 28 0c 07       	movaps xmm9,XMMWORD PTR [rdi+r8*1]
    37bd:	66 44 0f 6f df       	movdqa xmm11,xmm7
    37c2:	66 44 0f db de       	pand   xmm11,xmm6
    37c7:	66 0f 6f df          	movdqa xmm3,xmm7
    37cb:	66 41 0f db d9       	pand   xmm3,xmm9
    37d0:	66 41 0f 71 d1 08    	psrlw  xmm9,0x8
    37d6:	66 0f 71 d6 08       	psrlw  xmm6,0x8
    37db:	66 41 0f f9 db       	psubw  xmm3,xmm11
    37e0:	66 44 0f f9 ce       	psubw  xmm9,xmm6
    37e5:	44 0f 28 db          	movaps xmm11,xmm3
    37e9:	66 41 0f fd d9       	paddw  xmm3,xmm9
    37ee:	66 45 0f f9 cb       	psubw  xmm9,xmm11
    37f3:	48 8d 14 8a          	lea    rdx,[rdx+rcx*4]
    37f7:	48 8d 3c b7          	lea    rdi,[rdi+rsi*4]
    37fb:	0f 28 f0             	movaps xmm6,xmm0
    37fe:	66 0f fd c1          	paddw  xmm0,xmm1
    3802:	66 0f f9 ce          	psubw  xmm1,xmm6
    3806:	0f 28 f2             	movaps xmm6,xmm2
    3809:	66 0f fd d3          	paddw  xmm2,xmm3
    380d:	66 0f f9 de          	psubw  xmm3,xmm6
    3811:	0f 28 f0             	movaps xmm6,xmm0
    3814:	66 0f fd c2          	paddw  xmm0,xmm2
    3818:	66 0f f9 d6          	psubw  xmm2,xmm6
    381c:	0f 28 f1             	movaps xmm6,xmm1
    381f:	66 0f fd cb          	paddw  xmm1,xmm3
    3823:	66 0f f9 de          	psubw  xmm3,xmm6
    3827:	66 0f ef f6          	pxor   xmm6,xmm6
    382b:	66 45 0f ef db       	pxor   xmm11,xmm11
    3830:	66 0f f9 f0          	psubw  xmm6,xmm0
    3834:	66 44 0f f9 da       	psubw  xmm11,xmm2
    3839:	66 0f ee c6          	pmaxsw xmm0,xmm6
    383d:	66 41 0f ee d3       	pmaxsw xmm2,xmm11
    3842:	66 0f ef f6          	pxor   xmm6,xmm6
    3846:	66 45 0f ef db       	pxor   xmm11,xmm11
    384b:	66 0f f9 f1          	psubw  xmm6,xmm1
    384f:	66 44 0f f9 db       	psubw  xmm11,xmm3
    3854:	66 0f ee ce          	pmaxsw xmm1,xmm6
    3858:	66 41 0f ee db       	pmaxsw xmm3,xmm11
    385d:	0f 28 35 00 00 00 00 	movaps xmm6,XMMWORD PTR [rip+0x0]        # 3864 <x264_8_pixel_satd_16x4_internal_sse2+0x154>
    3864:	44 0f 28 da          	movaps xmm11,xmm2
    3868:	66 0f 72 f2 10       	pslld  xmm2,0x10
    386d:	66 44 0f db de       	pand   xmm11,xmm6
    3872:	66 0f df f0          	pandn  xmm6,xmm0
    3876:	66 0f 72 d0 10       	psrld  xmm0,0x10
    387b:	66 0f eb d6          	por    xmm2,xmm6
    387f:	66 41 0f eb c3       	por    xmm0,xmm11
    3884:	66 0f ee c2          	pmaxsw xmm0,xmm2
    3888:	66 44 0f fd d0       	paddw  xmm10,xmm0
    388d:	0f 28 35 00 00 00 00 	movaps xmm6,XMMWORD PTR [rip+0x0]        # 3894 <x264_8_pixel_satd_16x4_internal_sse2+0x184>
    3894:	44 0f 28 db          	movaps xmm11,xmm3
    3898:	66 0f 72 f3 10       	pslld  xmm3,0x10
    389d:	66 44 0f db de       	pand   xmm11,xmm6
    38a2:	66 0f df f1          	pandn  xmm6,xmm1
    38a6:	66 0f 72 d1 10       	psrld  xmm1,0x10
    38ab:	66 0f eb de          	por    xmm3,xmm6
    38af:	66 41 0f eb cb       	por    xmm1,xmm11
    38b4:	66 0f ee cb          	pmaxsw xmm1,xmm3
    38b8:	66 44 0f fd d1       	paddw  xmm10,xmm1
    38bd:	0f 28 f4             	movaps xmm6,xmm4
    38c0:	66 41 0f fd e0       	paddw  xmm4,xmm8
    38c5:	66 44 0f f9 c6       	psubw  xmm8,xmm6
    38ca:	0f 28 f5             	movaps xmm6,xmm5
    38cd:	66 41 0f fd e9       	paddw  xmm5,xmm9
    38d2:	66 44 0f f9 ce       	psubw  xmm9,xmm6
    38d7:	0f 28 f4             	movaps xmm6,xmm4
    38da:	66 0f fd e5          	paddw  xmm4,xmm5
    38de:	66 0f f9 ee          	psubw  xmm5,xmm6
    38e2:	41 0f 28 f0          	movaps xmm6,xmm8
    38e6:	66 45 0f fd c1       	paddw  xmm8,xmm9
    38eb:	66 44 0f f9 ce       	psubw  xmm9,xmm6
    38f0:	66 0f ef f6          	pxor   xmm6,xmm6
    38f4:	66 0f ef db          	pxor   xmm3,xmm3
    38f8:	66 0f f9 f4          	psubw  xmm6,xmm4
    38fc:	66 0f f9 dd          	psubw  xmm3,xmm5
    3900:	66 0f ee e6          	pmaxsw xmm4,xmm6
    3904:	66 0f ee eb          	pmaxsw xmm5,xmm3
    3908:	66 0f ef f6          	pxor   xmm6,xmm6
    390c:	66 0f ef db          	pxor   xmm3,xmm3
    3910:	66 41 0f f9 f0       	psubw  xmm6,xmm8
    3915:	66 41 0f f9 d9       	psubw  xmm3,xmm9
    391a:	66 44 0f ee c6       	pmaxsw xmm8,xmm6
    391f:	66 44 0f ee cb       	pmaxsw xmm9,xmm3
    3924:	0f 28 35 00 00 00 00 	movaps xmm6,XMMWORD PTR [rip+0x0]        # 392b <x264_8_pixel_satd_16x4_internal_sse2+0x21b>
    392b:	0f 28 dd             	movaps xmm3,xmm5
    392e:	66 0f 72 f5 10       	pslld  xmm5,0x10
    3933:	66 0f db de          	pand   xmm3,xmm6
    3937:	66 0f df f4          	pandn  xmm6,xmm4
    393b:	66 0f 72 d4 10       	psrld  xmm4,0x10
    3940:	66 0f eb ee          	por    xmm5,xmm6
    3944:	66 0f eb e3          	por    xmm4,xmm3
    3948:	66 0f ee e5          	pmaxsw xmm4,xmm5
    394c:	66 44 0f fd d4       	paddw  xmm10,xmm4
    3951:	0f 28 35 00 00 00 00 	movaps xmm6,XMMWORD PTR [rip+0x0]        # 3958 <x264_8_pixel_satd_16x4_internal_sse2+0x248>
    3958:	41 0f 28 d9          	movaps xmm3,xmm9
    395c:	66 41 0f 72 f1 10    	pslld  xmm9,0x10
    3962:	66 0f db de          	pand   xmm3,xmm6
    3966:	66 41 0f df f0       	pandn  xmm6,xmm8
    396b:	66 41 0f 72 d0 10    	psrld  xmm8,0x10
    3971:	66 44 0f eb ce       	por    xmm9,xmm6
    3976:	66 44 0f eb c3       	por    xmm8,xmm3
    397b:	66 45 0f ee c1       	pmaxsw xmm8,xmm9
    3980:	66 45 0f fd d0       	paddw  xmm10,xmm8
    3985:	c3                   	ret    
    3986:	0f 1f 84 00 00 00 00 	nop    DWORD PTR [rax+rax*1+0x0]
    398d:	00 
    398e:	66 90                	xchg   ax,ax

0000000000003990 <x264_8_pixel_satd_16x8_sse2>:
    3990:	4c 8d 04 76          	lea    r8,[rsi+rsi*2]
    3994:	4c 8d 0c 49          	lea    r9,[rcx+rcx*2]
    3998:	66 45 0f ef d2       	pxor   xmm10,xmm10
    399d:	0f 28 3d 00 00 00 00 	movaps xmm7,XMMWORD PTR [rip+0x0]        # 39a4 <x264_8_pixel_satd_16x8_sse2+0x14>
    39a4:	eb 28                	jmp    39ce <x264_8_pixel_satd_16x16_sse2+0x1e>
    39a6:	0f 1f 84 00 00 00 00 	nop    DWORD PTR [rax+rax*1+0x0]
    39ad:	00 
    39ae:	66 90                	xchg   ax,ax

00000000000039b0 <x264_8_pixel_satd_16x16_sse2>:
    39b0:	4c 8d 04 76          	lea    r8,[rsi+rsi*2]
    39b4:	4c 8d 0c 49          	lea    r9,[rcx+rcx*2]
    39b8:	66 45 0f ef d2       	pxor   xmm10,xmm10
    39bd:	0f 28 3d 00 00 00 00 	movaps xmm7,XMMWORD PTR [rip+0x0]        # 39c4 <x264_8_pixel_satd_16x16_sse2+0x14>
    39c4:	e8 47 fd ff ff       	call   3710 <x264_8_pixel_satd_16x4_internal_sse2>
    39c9:	e8 42 fd ff ff       	call   3710 <x264_8_pixel_satd_16x4_internal_sse2>
    39ce:	e8 3d fd ff ff       	call   3710 <x264_8_pixel_satd_16x4_internal_sse2>
    39d3:	e8 38 fd ff ff       	call   3710 <x264_8_pixel_satd_16x4_internal_sse2>
    39d8:	66 44 0f f5 15 00 00 	pmaddwd xmm10,XMMWORD PTR [rip+0x0]        # 39e1 <x264_8_pixel_satd_16x16_sse2+0x31>
    39df:	00 00 
    39e1:	41 0f 12 fa          	movhlps xmm7,xmm10
    39e5:	66 44 0f fe d7       	paddd  xmm10,xmm7
    39ea:	f2 41 0f 70 fa 4e    	pshuflw xmm7,xmm10,0x4e
    39f0:	66 44 0f fe d7       	paddd  xmm10,xmm7
    39f5:	66 44 0f 7e d0       	movd   eax,xmm10
    39fa:	c3                   	ret    
    39fb:	0f 1f 44 00 00       	nop    DWORD PTR [rax+rax*1+0x0]

0000000000003a00 <x264_8_pixel_satd_8x16_sse2>:
    3a00:	4c 8d 04 76          	lea    r8,[rsi+rsi*2]
    3a04:	4c 8d 0c 49          	lea    r9,[rcx+rcx*2]
    3a08:	66 0f ef f6          	pxor   xmm6,xmm6
    3a0c:	e8 af fa ff ff       	call   34c0 <x264_8_pixel_satd_8x8_internal_sse2>
    3a11:	e8 aa fa ff ff       	call   34c0 <x264_8_pixel_satd_8x8_internal_sse2>
    3a16:	66 0f f5 35 00 00 00 	pmaddwd xmm6,XMMWORD PTR [rip+0x0]        # 3a1e <x264_8_pixel_satd_8x16_sse2+0x1e>
    3a1d:	00 
    3a1e:	0f 12 fe             	movhlps xmm7,xmm6
    3a21:	66 0f fe f7          	paddd  xmm6,xmm7
    3a25:	f2 0f 70 fe 4e       	pshuflw xmm7,xmm6,0x4e
    3a2a:	66 0f fe f7          	paddd  xmm6,xmm7
    3a2e:	66 0f 7e f0          	movd   eax,xmm6
    3a32:	c3                   	ret    
    3a33:	0f 1f 84 00 00 00 00 	nop    DWORD PTR [rax+rax*1+0x0]
    3a3a:	00 
    3a3b:	0f 1f 44 00 00       	nop    DWORD PTR [rax+rax*1+0x0]

0000000000003a40 <x264_8_pixel_satd_8x8_sse2>:
    3a40:	4c 8d 04 76          	lea    r8,[rsi+rsi*2]
    3a44:	4c 8d 0c 49          	lea    r9,[rcx+rcx*2]
    3a48:	66 0f ef f6          	pxor   xmm6,xmm6
    3a4c:	e8 6f fa ff ff       	call   34c0 <x264_8_pixel_satd_8x8_internal_sse2>
    3a51:	66 0f f5 35 00 00 00 	pmaddwd xmm6,XMMWORD PTR [rip+0x0]        # 3a59 <x264_8_pixel_satd_8x8_sse2+0x19>
    3a58:	00 
    3a59:	0f 12 fe             	movhlps xmm7,xmm6
    3a5c:	66 0f fe f7          	paddd  xmm6,xmm7
    3a60:	f2 0f 70 fe 4e       	pshuflw xmm7,xmm6,0x4e
    3a65:	66 0f fe f7          	paddd  xmm6,xmm7
    3a69:	66 0f 7e f0          	movd   eax,xmm6
    3a6d:	c3                   	ret    
    3a6e:	66 90                	xchg   ax,ax

0000000000003a70 <x264_8_pixel_satd_8x4_sse2>:
    3a70:	4c 8d 04 76          	lea    r8,[rsi+rsi*2]
    3a74:	4c 8d 0c 49          	lea    r9,[rcx+rcx*2]
    3a78:	66 0f ef f6          	pxor   xmm6,xmm6
    3a7c:	e8 61 fb ff ff       	call   35e2 <x264_8_pixel_satd_8x8_internal_sse2+0x122>
    3a81:	66 0f f5 35 00 00 00 	pmaddwd xmm6,XMMWORD PTR [rip+0x0]        # 3a89 <x264_8_pixel_satd_8x4_sse2+0x19>
    3a88:	00 
    3a89:	0f 12 fe             	movhlps xmm7,xmm6
    3a8c:	66 0f fe f7          	paddd  xmm6,xmm7
    3a90:	f2 0f 70 fe 4e       	pshuflw xmm7,xmm6,0x4e
    3a95:	66 0f fe f7          	paddd  xmm6,xmm7
    3a99:	66 0f 7e f0          	movd   eax,xmm6
    3a9d:	c3                   	ret    
    3a9e:	66 90                	xchg   ax,ax

0000000000003aa0 <x264_8_pixel_sa8d_satd_8x8_internal_sse2>:
    3aa0:	f3 0f 7e 07          	movq   xmm0,QWORD PTR [rdi]
    3aa4:	f3 0f 7e 32          	movq   xmm6,QWORD PTR [rdx]
    3aa8:	66 0f 60 c7          	punpcklbw xmm0,xmm7
    3aac:	66 0f 60 f7          	punpcklbw xmm6,xmm7
    3ab0:	66 0f f9 c6          	psubw  xmm0,xmm6
    3ab4:	f3 0f 7e 0c 37       	movq   xmm1,QWORD PTR [rdi+rsi*1]
    3ab9:	f3 44 0f 7e 1c 0a    	movq   xmm11,QWORD PTR [rdx+rcx*1]
    3abf:	66 0f 60 cf          	punpcklbw xmm1,xmm7
    3ac3:	66 44 0f 60 df       	punpcklbw xmm11,xmm7
    3ac8:	66 41 0f f9 cb       	psubw  xmm1,xmm11
    3acd:	f3 0f 7e 14 77       	movq   xmm2,QWORD PTR [rdi+rsi*2]
    3ad2:	f3 0f 7e 34 4a       	movq   xmm6,QWORD PTR [rdx+rcx*2]
    3ad7:	66 0f 60 d7          	punpcklbw xmm2,xmm7
    3adb:	66 0f 60 f7          	punpcklbw xmm6,xmm7
    3adf:	66 0f f9 d6          	psubw  xmm2,xmm6
    3ae3:	f3 42 0f 7e 1c 07    	movq   xmm3,QWORD PTR [rdi+r8*1]
    3ae9:	f3 46 0f 7e 1c 0a    	movq   xmm11,QWORD PTR [rdx+r9*1]
    3aef:	66 0f 60 df          	punpcklbw xmm3,xmm7
    3af3:	66 44 0f 60 df       	punpcklbw xmm11,xmm7
    3af8:	66 41 0f f9 db       	psubw  xmm3,xmm11
    3afd:	48 8d 3c b7          	lea    rdi,[rdi+rsi*4]
    3b01:	48 8d 14 8a          	lea    rdx,[rdx+rcx*4]
    3b05:	0f 28 f0             	movaps xmm6,xmm0
    3b08:	66 0f fd c1          	paddw  xmm0,xmm1
    3b0c:	66 0f f9 ce          	psubw  xmm1,xmm6
    3b10:	0f 28 f2             	movaps xmm6,xmm2
    3b13:	66 0f fd d3          	paddw  xmm2,xmm3
    3b17:	66 0f f9 de          	psubw  xmm3,xmm6
    3b1b:	0f 28 f0             	movaps xmm6,xmm0
    3b1e:	66 0f 61 c1          	punpcklwd xmm0,xmm1
    3b22:	66 0f 69 f1          	punpckhwd xmm6,xmm1
    3b26:	0f 28 ca             	movaps xmm1,xmm2
    3b29:	66 0f 61 d3          	punpcklwd xmm2,xmm3
    3b2d:	66 0f 69 cb          	punpckhwd xmm1,xmm3
    3b31:	0f 28 d8             	movaps xmm3,xmm0
    3b34:	66 0f fd c2          	paddw  xmm0,xmm2
    3b38:	66 0f f9 d3          	psubw  xmm2,xmm3
    3b3c:	0f 28 de             	movaps xmm3,xmm6
    3b3f:	66 0f fd f1          	paddw  xmm6,xmm1
    3b43:	66 0f f9 cb          	psubw  xmm1,xmm3
    3b47:	0f 28 d8             	movaps xmm3,xmm0
    3b4a:	66 0f 62 c2          	punpckldq xmm0,xmm2
    3b4e:	66 0f 6a da          	punpckhdq xmm3,xmm2
    3b52:	0f 28 d0             	movaps xmm2,xmm0
    3b55:	66 0f fd c3          	paddw  xmm0,xmm3
    3b59:	66 0f f9 da          	psubw  xmm3,xmm2
    3b5d:	0f 28 d6             	movaps xmm2,xmm6
    3b60:	66 0f 62 f1          	punpckldq xmm6,xmm1
    3b64:	66 0f 6a d1          	punpckhdq xmm2,xmm1
    3b68:	0f 28 ce             	movaps xmm1,xmm6
    3b6b:	66 0f fd f2          	paddw  xmm6,xmm2
    3b6f:	66 0f f9 d1          	psubw  xmm2,xmm1
    3b73:	44 0f 28 e0          	movaps xmm12,xmm0
    3b77:	44 0f 28 ee          	movaps xmm13,xmm6
    3b7b:	44 0f 28 f3          	movaps xmm14,xmm3
    3b7f:	44 0f 28 fa          	movaps xmm15,xmm2
    3b83:	0f 28 c8             	movaps xmm1,xmm0
    3b86:	66 0f fd c6          	paddw  xmm0,xmm6
    3b8a:	66 0f f9 f1          	psubw  xmm6,xmm1
    3b8e:	0f 28 cb             	movaps xmm1,xmm3
    3b91:	66 0f fd da          	paddw  xmm3,xmm2
    3b95:	66 0f f9 d1          	psubw  xmm2,xmm1
    3b99:	41 0f 28 cc          	movaps xmm1,xmm12
    3b9d:	45 0f 16 e5          	movlhps xmm12,xmm13
    3ba1:	66 41 0f 6d cd       	punpckhqdq xmm1,xmm13
    3ba6:	66 45 0f ef ed       	pxor   xmm13,xmm13
    3bab:	66 45 0f f9 ec       	psubw  xmm13,xmm12
    3bb0:	66 45 0f ee e5       	pmaxsw xmm12,xmm13
    3bb5:	66 45 0f ef ed       	pxor   xmm13,xmm13
    3bba:	66 44 0f f9 e9       	psubw  xmm13,xmm1
    3bbf:	66 41 0f ee cd       	pmaxsw xmm1,xmm13
    3bc4:	66 44 0f ee e1       	pmaxsw xmm12,xmm1
    3bc9:	45 0f 28 ee          	movaps xmm13,xmm14
    3bcd:	45 0f 16 f7          	movlhps xmm14,xmm15
    3bd1:	66 45 0f 6d ef       	punpckhqdq xmm13,xmm15
    3bd6:	66 45 0f fd d4       	paddw  xmm10,xmm12
    3bdb:	66 45 0f ef ff       	pxor   xmm15,xmm15
    3be0:	66 45 0f f9 fe       	psubw  xmm15,xmm14
    3be5:	66 45 0f ee f7       	pmaxsw xmm14,xmm15
    3bea:	66 45 0f ef ff       	pxor   xmm15,xmm15
    3bef:	66 45 0f f9 fd       	psubw  xmm15,xmm13
    3bf4:	66 45 0f ee ef       	pmaxsw xmm13,xmm15
    3bf9:	66 45 0f ee f5       	pmaxsw xmm14,xmm13
    3bfe:	66 45 0f fd d6       	paddw  xmm10,xmm14
    3c03:	f3 0f 7e 27          	movq   xmm4,QWORD PTR [rdi]
    3c07:	f3 44 0f 7e 3a       	movq   xmm15,QWORD PTR [rdx]
    3c0c:	66 0f 60 e7          	punpcklbw xmm4,xmm7
    3c10:	66 44 0f 60 ff       	punpcklbw xmm15,xmm7
    3c15:	66 41 0f f9 e7       	psubw  xmm4,xmm15
    3c1a:	f3 0f 7e 2c 37       	movq   xmm5,QWORD PTR [rdi+rsi*1]
    3c1f:	f3 44 0f 7e 1c 0a    	movq   xmm11,QWORD PTR [rdx+rcx*1]
    3c25:	66 0f 60 ef          	punpcklbw xmm5,xmm7
    3c29:	66 44 0f 60 df       	punpcklbw xmm11,xmm7
    3c2e:	66 41 0f f9 eb       	psubw  xmm5,xmm11
    3c33:	f3 44 0f 7e 04 77    	movq   xmm8,QWORD PTR [rdi+rsi*2]
    3c39:	f3 44 0f 7e 3c 4a    	movq   xmm15,QWORD PTR [rdx+rcx*2]
    3c3f:	66 44 0f 60 c7       	punpcklbw xmm8,xmm7
    3c44:	66 44 0f 60 ff       	punpcklbw xmm15,xmm7
    3c49:	66 45 0f f9 c7       	psubw  xmm8,xmm15
    3c4e:	f3 46 0f 7e 0c 07    	movq   xmm9,QWORD PTR [rdi+r8*1]
    3c54:	f3 46 0f 7e 1c 0a    	movq   xmm11,QWORD PTR [rdx+r9*1]
    3c5a:	66 44 0f 60 cf       	punpcklbw xmm9,xmm7
    3c5f:	66 44 0f 60 df       	punpcklbw xmm11,xmm7
    3c64:	66 45 0f f9 cb       	psubw  xmm9,xmm11
    3c69:	48 8d 3c b7          	lea    rdi,[rdi+rsi*4]
    3c6d:	48 8d 14 8a          	lea    rdx,[rdx+rcx*4]
    3c71:	44 0f 28 fc          	movaps xmm15,xmm4
    3c75:	66 0f fd e5          	paddw  xmm4,xmm5
    3c79:	66 41 0f f9 ef       	psubw  xmm5,xmm15
    3c7e:	45 0f 28 f8          	movaps xmm15,xmm8
    3c82:	66 45 0f fd c1       	paddw  xmm8,xmm9
    3c87:	66 45 0f f9 cf       	psubw  xmm9,xmm15
    3c8c:	44 0f 28 fc          	movaps xmm15,xmm4
    3c90:	66 0f 61 e5          	punpcklwd xmm4,xmm5
    3c94:	66 44 0f 69 fd       	punpckhwd xmm15,xmm5
    3c99:	41 0f 28 e8          	movaps xmm5,xmm8
    3c9d:	66 45 0f 61 c1       	punpcklwd xmm8,xmm9
    3ca2:	66 41 0f 69 e9       	punpckhwd xmm5,xmm9
    3ca7:	44 0f 28 cc          	movaps xmm9,xmm4
    3cab:	66 41 0f fd e0       	paddw  xmm4,xmm8
    3cb0:	66 45 0f f9 c1       	psubw  xmm8,xmm9
    3cb5:	45 0f 28 cf          	movaps xmm9,xmm15
    3cb9:	66 44 0f fd fd       	paddw  xmm15,xmm5
    3cbe:	66 41 0f f9 e9       	psubw  xmm5,xmm9
    3cc3:	44 0f 28 cc          	movaps xmm9,xmm4
    3cc7:	66 41 0f 62 e0       	punpckldq xmm4,xmm8
    3ccc:	66 45 0f 6a c8       	punpckhdq xmm9,xmm8
    3cd1:	44 0f 28 c4          	movaps xmm8,xmm4
    3cd5:	66 41 0f fd e1       	paddw  xmm4,xmm9
    3cda:	66 45 0f f9 c8       	psubw  xmm9,xmm8
    3cdf:	45 0f 28 c7          	movaps xmm8,xmm15
    3ce3:	66 44 0f 62 fd       	punpckldq xmm15,xmm5
    3ce8:	66 44 0f 6a c5       	punpckhdq xmm8,xmm5
    3ced:	41 0f 28 ef          	movaps xmm5,xmm15
    3cf1:	66 45 0f fd f8       	paddw  xmm15,xmm8
    3cf6:	66 44 0f f9 c5       	psubw  xmm8,xmm5
    3cfb:	44 0f 28 e4          	movaps xmm12,xmm4
    3cff:	41 0f 28 cf          	movaps xmm1,xmm15
    3d03:	45 0f 28 f1          	movaps xmm14,xmm9
    3d07:	45 0f 28 e8          	movaps xmm13,xmm8
    3d0b:	0f 28 ec             	movaps xmm5,xmm4
    3d0e:	66 41 0f fd e7       	paddw  xmm4,xmm15
    3d13:	66 44 0f f9 fd       	psubw  xmm15,xmm5
    3d18:	41 0f 28 e9          	movaps xmm5,xmm9
    3d1c:	66 45 0f fd c8       	paddw  xmm9,xmm8
    3d21:	66 44 0f f9 c5       	psubw  xmm8,xmm5
    3d26:	41 0f 28 ec          	movaps xmm5,xmm12
    3d2a:	44 0f 16 e1          	movlhps xmm12,xmm1
    3d2e:	66 0f 6d e9          	punpckhqdq xmm5,xmm1
    3d32:	66 0f ef c9          	pxor   xmm1,xmm1
    3d36:	66 41 0f f9 cc       	psubw  xmm1,xmm12
    3d3b:	66 44 0f ee e1       	pmaxsw xmm12,xmm1
    3d40:	66 0f ef c9          	pxor   xmm1,xmm1
    3d44:	66 0f f9 cd          	psubw  xmm1,xmm5
    3d48:	66 0f ee e9          	pmaxsw xmm5,xmm1
    3d4c:	66 44 0f ee e5       	pmaxsw xmm12,xmm5
    3d51:	41 0f 28 ce          	movaps xmm1,xmm14
    3d55:	45 0f 16 f5          	movlhps xmm14,xmm13
    3d59:	66 41 0f 6d cd       	punpckhqdq xmm1,xmm13
    3d5e:	66 45 0f fd d4       	paddw  xmm10,xmm12
    3d63:	66 45 0f ef ed       	pxor   xmm13,xmm13
    3d68:	66 45 0f f9 ee       	psubw  xmm13,xmm14
    3d6d:	66 45 0f ee f5       	pmaxsw xmm14,xmm13
    3d72:	66 45 0f ef ed       	pxor   xmm13,xmm13
    3d77:	66 44 0f f9 e9       	psubw  xmm13,xmm1
    3d7c:	66 41 0f ee cd       	pmaxsw xmm1,xmm13
    3d81:	66 44 0f ee f1       	pmaxsw xmm14,xmm1
    3d86:	66 45 0f fd d6       	paddw  xmm10,xmm14
    3d8b:	44 0f 28 e8          	movaps xmm13,xmm0
    3d8f:	66 0f fd c4          	paddw  xmm0,xmm4
    3d93:	66 41 0f f9 e5       	psubw  xmm4,xmm13
    3d98:	44 0f 28 eb          	movaps xmm13,xmm3
    3d9c:	66 41 0f fd d9       	paddw  xmm3,xmm9
    3da1:	66 45 0f f9 cd       	psubw  xmm9,xmm13
    3da6:	44 0f 28 e8          	movaps xmm13,xmm0
    3daa:	0f 16 c4             	movlhps xmm0,xmm4
    3dad:	66 44 0f 6d ec       	punpckhqdq xmm13,xmm4
    3db2:	66 0f ef e4          	pxor   xmm4,xmm4
    3db6:	66 0f f9 e0          	psubw  xmm4,xmm0
    3dba:	66 0f ee c4          	pmaxsw xmm0,xmm4
    3dbe:	66 0f ef e4          	pxor   xmm4,xmm4
    3dc2:	66 41 0f f9 e5       	psubw  xmm4,xmm13
    3dc7:	66 44 0f ee ec       	pmaxsw xmm13,xmm4
    3dcc:	66 41 0f ee c5       	pmaxsw xmm0,xmm13
    3dd1:	0f 28 e3             	movaps xmm4,xmm3
    3dd4:	41 0f 16 d9          	movlhps xmm3,xmm9
    3dd8:	66 41 0f 6d e1       	punpckhqdq xmm4,xmm9
    3ddd:	66 45 0f ef c9       	pxor   xmm9,xmm9
    3de2:	66 44 0f f9 cb       	psubw  xmm9,xmm3
    3de7:	66 41 0f ee d9       	pmaxsw xmm3,xmm9
    3dec:	66 45 0f ef c9       	pxor   xmm9,xmm9
    3df1:	66 44 0f f9 cc       	psubw  xmm9,xmm4
    3df6:	66 41 0f ee e1       	pmaxsw xmm4,xmm9
    3dfb:	66 0f ee dc          	pmaxsw xmm3,xmm4
    3dff:	44 0f 28 ce          	movaps xmm9,xmm6
    3e03:	66 41 0f fd f7       	paddw  xmm6,xmm15
    3e08:	66 45 0f f9 f9       	psubw  xmm15,xmm9
    3e0d:	44 0f 28 ca          	movaps xmm9,xmm2
    3e11:	66 41 0f fd d0       	paddw  xmm2,xmm8
    3e16:	66 45 0f f9 c1       	psubw  xmm8,xmm9
    3e1b:	44 0f 28 ce          	movaps xmm9,xmm6
    3e1f:	41 0f 16 f7          	movlhps xmm6,xmm15
    3e23:	66 45 0f 6d cf       	punpckhqdq xmm9,xmm15
    3e28:	66 45 0f ef ff       	pxor   xmm15,xmm15
    3e2d:	66 44 0f f9 fe       	psubw  xmm15,xmm6
    3e32:	66 41 0f ee f7       	pmaxsw xmm6,xmm15
    3e37:	66 45 0f ef ff       	pxor   xmm15,xmm15
    3e3c:	66 45 0f f9 f9       	psubw  xmm15,xmm9
    3e41:	66 45 0f ee cf       	pmaxsw xmm9,xmm15
    3e46:	66 41 0f ee f1       	pmaxsw xmm6,xmm9
    3e4b:	44 0f 28 fa          	movaps xmm15,xmm2
    3e4f:	41 0f 16 d0          	movlhps xmm2,xmm8
    3e53:	66 45 0f 6d f8       	punpckhqdq xmm15,xmm8
    3e58:	66 45 0f ef c0       	pxor   xmm8,xmm8
    3e5d:	66 44 0f f9 c2       	psubw  xmm8,xmm2
    3e62:	66 41 0f ee d0       	pmaxsw xmm2,xmm8
    3e67:	66 45 0f ef c0       	pxor   xmm8,xmm8
    3e6c:	66 45 0f f9 c7       	psubw  xmm8,xmm15
    3e71:	66 45 0f ee f8       	pmaxsw xmm15,xmm8
    3e76:	66 41 0f ee d7       	pmaxsw xmm2,xmm15
    3e7b:	66 0f fd f3          	paddw  xmm6,xmm3
    3e7f:	66 0f fd c2          	paddw  xmm0,xmm2
    3e83:	66 0f fd c6          	paddw  xmm0,xmm6
    3e87:	c3                   	ret    
    3e88:	0f 1f 84 00 00 00 00 	nop    DWORD PTR [rax+rax*1+0x0]
    3e8f:	00 

0000000000003e90 <x264_8_pixel_sa8d_satd_16x16_sse2>:
    3e90:	48 83 ec 48          	sub    rsp,0x48
    3e94:	4c 8d 04 76          	lea    r8,[rsi+rsi*2]
    3e98:	4c 8d 0c 49          	lea    r9,[rcx+rcx*2]
    3e9c:	66 45 0f ef d2       	pxor   xmm10,xmm10
    3ea1:	48 8d 42 08          	lea    rax,[rdx+0x8]
    3ea5:	4c 8d 57 08          	lea    r10,[rdi+0x8]
    3ea9:	e8 f2 fb ff ff       	call   3aa0 <x264_8_pixel_sa8d_satd_8x8_internal_sse2>
    3eae:	0f 29 04 24          	movaps XMMWORD PTR [rsp],xmm0
    3eb2:	e8 e9 fb ff ff       	call   3aa0 <x264_8_pixel_sa8d_satd_8x8_internal_sse2>
    3eb7:	66 0f fd 04 24       	paddw  xmm0,XMMWORD PTR [rsp]
    3ebc:	0f 29 04 24          	movaps XMMWORD PTR [rsp],xmm0
    3ec0:	4c 89 d7             	mov    rdi,r10
    3ec3:	48 89 c2             	mov    rdx,rax
    3ec6:	e8 d5 fb ff ff       	call   3aa0 <x264_8_pixel_sa8d_satd_8x8_internal_sse2>
    3ecb:	66 0f fd 04 24       	paddw  xmm0,XMMWORD PTR [rsp]
    3ed0:	0f 29 04 24          	movaps XMMWORD PTR [rsp],xmm0
    3ed4:	e8 c7 fb ff ff       	call   3aa0 <x264_8_pixel_sa8d_satd_8x8_internal_sse2>
    3ed9:	66 0f fd 04 24       	paddw  xmm0,XMMWORD PTR [rsp]
    3ede:	66 0f 6f f0          	movdqa xmm6,xmm0
    3ee2:	66 0f 72 d6 10       	psrld  xmm6,0x10
    3ee7:	66 0f 72 f0 10       	pslld  xmm0,0x10
    3eec:	66 0f 72 d0 10       	psrld  xmm0,0x10
    3ef1:	66 0f fe c6          	paddd  xmm0,xmm6
    3ef5:	0f 12 f0             	movhlps xmm6,xmm0
    3ef8:	66 0f fe c6          	paddd  xmm0,xmm6
    3efc:	f2 0f 70 f0 4e       	pshuflw xmm6,xmm0,0x4e
    3f01:	66 0f fe c6          	paddd  xmm0,xmm6
    3f05:	66 44 0f f5 15 00 00 	pmaddwd xmm10,XMMWORD PTR [rip+0x0]        # 3f0e <x264_8_pixel_sa8d_satd_16x16_sse2+0x7e>
    3f0c:	00 00 
    3f0e:	41 0f 12 da          	movhlps xmm3,xmm10
    3f12:	66 44 0f fe d3       	paddd  xmm10,xmm3
    3f17:	f2 41 0f 70 da 4e    	pshuflw xmm3,xmm10,0x4e
    3f1d:	66 44 0f fe d3       	paddd  xmm10,xmm3
    3f22:	66 0f 7e c7          	movd   edi,xmm0
    3f26:	66 44 0f 7e d0       	movd   eax,xmm10
    3f2b:	83 c7 01             	add    edi,0x1
    3f2e:	48 c1 e0 20          	shl    rax,0x20
    3f32:	d1 ef                	shr    edi,1
    3f34:	48 09 f8             	or     rax,rdi
    3f37:	48 83 c4 48          	add    rsp,0x48
    3f3b:	c3                   	ret    
    3f3c:	0f 1f 40 00          	nop    DWORD PTR [rax+0x0]

0000000000003f40 <x264_8_intra_sa8d_x3_8x8_sse2>:
    3f40:	66 45 0f ef c0       	pxor   xmm8,xmm8
    3f45:	f3 0f 7e 07          	movq   xmm0,QWORD PTR [rdi]
    3f49:	f3 0f 7e 4f 10       	movq   xmm1,QWORD PTR [rdi+0x10]
    3f4e:	f3 0f 7e 57 20       	movq   xmm2,QWORD PTR [rdi+0x20]
    3f53:	f3 0f 7e 5f 30       	movq   xmm3,QWORD PTR [rdi+0x30]
    3f58:	f3 0f 7e 67 40       	movq   xmm4,QWORD PTR [rdi+0x40]
    3f5d:	f3 0f 7e 6f 50       	movq   xmm5,QWORD PTR [rdi+0x50]
    3f62:	f3 0f 7e 77 60       	movq   xmm6,QWORD PTR [rdi+0x60]
    3f67:	f3 0f 7e 7f 70       	movq   xmm7,QWORD PTR [rdi+0x70]
    3f6c:	66 41 0f 60 c0       	punpcklbw xmm0,xmm8
    3f71:	66 41 0f 60 c8       	punpcklbw xmm1,xmm8
    3f76:	66 41 0f 60 d0       	punpcklbw xmm2,xmm8
    3f7b:	66 41 0f 60 d8       	punpcklbw xmm3,xmm8
    3f80:	66 41 0f 60 e0       	punpcklbw xmm4,xmm8
    3f85:	66 41 0f 60 e8       	punpcklbw xmm5,xmm8
    3f8a:	66 41 0f 60 f0       	punpcklbw xmm6,xmm8
    3f8f:	66 41 0f 60 f8       	punpcklbw xmm7,xmm8
    3f94:	44 0f 28 c0          	movaps xmm8,xmm0
    3f98:	66 0f fd c1          	paddw  xmm0,xmm1
    3f9c:	66 41 0f f9 c8       	psubw  xmm1,xmm8
    3fa1:	44 0f 28 c2          	movaps xmm8,xmm2
    3fa5:	66 0f fd d3          	paddw  xmm2,xmm3
    3fa9:	66 41 0f f9 d8       	psubw  xmm3,xmm8
    3fae:	44 0f 28 c0          	movaps xmm8,xmm0
    3fb2:	66 0f 61 c1          	punpcklwd xmm0,xmm1
    3fb6:	66 44 0f 69 c1       	punpckhwd xmm8,xmm1
    3fbb:	0f 28 c8             	movaps xmm1,xmm0
    3fbe:	66 41 0f fd c0       	paddw  xmm0,xmm8
    3fc3:	66 44 0f f9 c1       	psubw  xmm8,xmm1
    3fc8:	0f 28 ca             	movaps xmm1,xmm2
    3fcb:	66 0f 61 d3          	punpcklwd xmm2,xmm3
    3fcf:	66 0f 69 cb          	punpckhwd xmm1,xmm3
    3fd3:	0f 28 da             	movaps xmm3,xmm2
    3fd6:	66 0f fd d1          	paddw  xmm2,xmm1
    3fda:	66 0f f9 cb          	psubw  xmm1,xmm3
    3fde:	0f 28 dc             	movaps xmm3,xmm4
    3fe1:	66 0f fd e5          	paddw  xmm4,xmm5
    3fe5:	66 0f f9 eb          	psubw  xmm5,xmm3
    3fe9:	0f 28 de             	movaps xmm3,xmm6
    3fec:	66 0f fd f7          	paddw  xmm6,xmm7
    3ff0:	66 0f f9 fb          	psubw  xmm7,xmm3
    3ff4:	0f 28 dc             	movaps xmm3,xmm4
    3ff7:	66 0f 61 e5          	punpcklwd xmm4,xmm5
    3ffb:	66 0f 69 dd          	punpckhwd xmm3,xmm5
    3fff:	0f 28 ec             	movaps xmm5,xmm4
    4002:	66 0f fd e3          	paddw  xmm4,xmm3
    4006:	66 0f f9 dd          	psubw  xmm3,xmm5
    400a:	0f 28 ee             	movaps xmm5,xmm6
    400d:	66 0f 61 f7          	punpcklwd xmm6,xmm7
    4011:	66 0f 69 ef          	punpckhwd xmm5,xmm7
    4015:	0f 28 fe             	movaps xmm7,xmm6
    4018:	66 0f fd f5          	paddw  xmm6,xmm5
    401c:	66 0f f9 ef          	psubw  xmm5,xmm7
    4020:	0f 28 f8             	movaps xmm7,xmm0
    4023:	66 0f fd c2          	paddw  xmm0,xmm2
    4027:	66 0f f9 d7          	psubw  xmm2,xmm7
    402b:	41 0f 28 f8          	movaps xmm7,xmm8
    402f:	66 44 0f fd c1       	paddw  xmm8,xmm1
    4034:	66 0f f9 cf          	psubw  xmm1,xmm7
    4038:	0f 28 f8             	movaps xmm7,xmm0
    403b:	66 0f 62 c2          	punpckldq xmm0,xmm2
    403f:	66 0f 6a fa          	punpckhdq xmm7,xmm2
    4043:	0f 28 d0             	movaps xmm2,xmm0
    4046:	66 0f fd c7          	paddw  xmm0,xmm7
    404a:	66 0f f9 fa          	psubw  xmm7,xmm2
    404e:	41 0f 28 d0          	movaps xmm2,xmm8
    4052:	66 44 0f 62 c1       	punpckldq xmm8,xmm1
    4057:	66 0f 6a d1          	punpckhdq xmm2,xmm1
    405b:	41 0f 28 c8          	movaps xmm1,xmm8
    405f:	66 44 0f fd c2       	paddw  xmm8,xmm2
    4064:	66 0f f9 d1          	psubw  xmm2,xmm1
    4068:	0f 28 cc             	movaps xmm1,xmm4
    406b:	66 0f fd e6          	paddw  xmm4,xmm6
    406f:	66 0f f9 f1          	psubw  xmm6,xmm1
    4073:	0f 28 cb             	movaps xmm1,xmm3
    4076:	66 0f fd dd          	paddw  xmm3,xmm5
    407a:	66 0f f9 e9          	psubw  xmm5,xmm1
    407e:	0f 28 cc             	movaps xmm1,xmm4
    4081:	66 0f 62 e6          	punpckldq xmm4,xmm6
    4085:	66 0f 6a ce          	punpckhdq xmm1,xmm6
    4089:	0f 28 f4             	movaps xmm6,xmm4
    408c:	66 0f fd e1          	paddw  xmm4,xmm1
    4090:	66 0f f9 ce          	psubw  xmm1,xmm6
    4094:	0f 28 f3             	movaps xmm6,xmm3
    4097:	66 0f 62 dd          	punpckldq xmm3,xmm5
    409b:	66 0f 6a f5          	punpckhdq xmm6,xmm5
    409f:	0f 28 eb             	movaps xmm5,xmm3
    40a2:	66 0f fd de          	paddw  xmm3,xmm6
    40a6:	66 0f f9 f5          	psubw  xmm6,xmm5
    40aa:	0f 28 e8             	movaps xmm5,xmm0
    40ad:	66 0f fd c4          	paddw  xmm0,xmm4
    40b1:	66 0f f9 e5          	psubw  xmm4,xmm5
    40b5:	0f 28 ef             	movaps xmm5,xmm7
    40b8:	66 0f fd f9          	paddw  xmm7,xmm1
    40bc:	66 0f f9 cd          	psubw  xmm1,xmm5
    40c0:	0f 28 e8             	movaps xmm5,xmm0
    40c3:	0f 16 c4             	movlhps xmm0,xmm4
    40c6:	66 0f 6d ec          	punpckhqdq xmm5,xmm4
    40ca:	0f 28 e0             	movaps xmm4,xmm0
    40cd:	66 0f fd c5          	paddw  xmm0,xmm5
    40d1:	66 0f f9 ec          	psubw  xmm5,xmm4
    40d5:	0f 28 e7             	movaps xmm4,xmm7
    40d8:	0f 16 f9             	movlhps xmm7,xmm1
    40db:	66 0f 6d e1          	punpckhqdq xmm4,xmm1
    40df:	0f 28 cf             	movaps xmm1,xmm7
    40e2:	66 0f fd fc          	paddw  xmm7,xmm4
    40e6:	66 0f f9 e1          	psubw  xmm4,xmm1
    40ea:	41 0f 28 c8          	movaps xmm1,xmm8
    40ee:	66 44 0f fd c3       	paddw  xmm8,xmm3
    40f3:	66 0f f9 d9          	psubw  xmm3,xmm1
    40f7:	0f 28 ca             	movaps xmm1,xmm2
    40fa:	66 0f fd d6          	paddw  xmm2,xmm6
    40fe:	66 0f f9 f1          	psubw  xmm6,xmm1
    4102:	41 0f 28 c8          	movaps xmm1,xmm8
    4106:	44 0f 16 c3          	movlhps xmm8,xmm3
    410a:	66 0f 6d cb          	punpckhqdq xmm1,xmm3
    410e:	41 0f 28 d8          	movaps xmm3,xmm8
    4112:	66 44 0f fd c1       	paddw  xmm8,xmm1
    4117:	66 0f f9 cb          	psubw  xmm1,xmm3
    411b:	0f 28 da             	movaps xmm3,xmm2
    411e:	0f 16 d6             	movlhps xmm2,xmm6
    4121:	66 0f 6d de          	punpckhqdq xmm3,xmm6
    4125:	0f 28 f2             	movaps xmm6,xmm2
    4128:	66 0f fd d3          	paddw  xmm2,xmm3
    412c:	66 0f f9 de          	psubw  xmm3,xmm6
    4130:	66 0f ef f6          	pxor   xmm6,xmm6
    4134:	66 45 0f ef c9       	pxor   xmm9,xmm9
    4139:	66 0f f9 f7          	psubw  xmm6,xmm7
    413d:	66 44 0f f9 cc       	psubw  xmm9,xmm4
    4142:	66 0f ee f7          	pmaxsw xmm6,xmm7
    4146:	66 44 0f ee cc       	pmaxsw xmm9,xmm4
    414b:	66 45 0f ef d2       	pxor   xmm10,xmm10
    4150:	66 45 0f ef db       	pxor   xmm11,xmm11
    4155:	66 45 0f f9 d0       	psubw  xmm10,xmm8
    415a:	66 44 0f f9 d9       	psubw  xmm11,xmm1
    415f:	66 45 0f ee d0       	pmaxsw xmm10,xmm8
    4164:	66 44 0f ee d9       	pmaxsw xmm11,xmm1
    4169:	66 41 0f fd f2       	paddw  xmm6,xmm10
    416e:	66 45 0f fd cb       	paddw  xmm9,xmm11
    4173:	66 45 0f ef d2       	pxor   xmm10,xmm10
    4178:	66 45 0f ef db       	pxor   xmm11,xmm11
    417d:	66 44 0f f9 d2       	psubw  xmm10,xmm2
    4182:	66 44 0f f9 db       	psubw  xmm11,xmm3
    4187:	66 44 0f ee d2       	pmaxsw xmm10,xmm2
    418c:	66 44 0f ee db       	pmaxsw xmm11,xmm3
    4191:	66 45 0f ef e4       	pxor   xmm12,xmm12
    4196:	66 44 0f f9 e5       	psubw  xmm12,xmm5
    419b:	66 44 0f ee e5       	pmaxsw xmm12,xmm5
    41a0:	66 45 0f fd d3       	paddw  xmm10,xmm11
    41a5:	66 41 0f fd f1       	paddw  xmm6,xmm9
    41aa:	66 45 0f fd e2       	paddw  xmm12,xmm10
    41af:	66 44 0f fd e6       	paddw  xmm12,xmm6
    41b4:	f3 0f 7e 76 07       	movq   xmm6,QWORD PTR [rsi+0x7]
    41b9:	f3 44 0f 7e 4e 10    	movq   xmm9,QWORD PTR [rsi+0x10]
    41bf:	66 45 0f ef d2       	pxor   xmm10,xmm10
    41c4:	66 41 0f 60 f2       	punpcklbw xmm6,xmm10
    41c9:	66 45 0f 60 ca       	punpcklbw xmm9,xmm10
    41ce:	66 44 0f 70 d6 4e    	pshufd xmm10,xmm6,0x4e
    41d4:	66 45 0f 70 d9 4e    	pshufd xmm11,xmm9,0x4e
    41da:	66 0f d5 35 00 00 00 	pmullw xmm6,XMMWORD PTR [rip+0x0]        # 41e2 <x264_8_intra_sa8d_x3_8x8_sse2+0x2a2>
    41e1:	00 
    41e2:	66 44 0f d5 1d 00 00 	pmullw xmm11,XMMWORD PTR [rip+0x0]        # 41eb <x264_8_intra_sa8d_x3_8x8_sse2+0x2ab>
    41e9:	00 00 
    41eb:	66 41 0f fd f2       	paddw  xmm6,xmm10
    41f0:	66 45 0f fd cb       	paddw  xmm9,xmm11
    41f5:	66 44 0f 70 d6 b1    	pshufd xmm10,xmm6,0xb1
    41fb:	66 45 0f 70 d9 b1    	pshufd xmm11,xmm9,0xb1
    4201:	66 0f d5 35 00 00 00 	pmullw xmm6,XMMWORD PTR [rip+0x0]        # 4209 <x264_8_intra_sa8d_x3_8x8_sse2+0x2c9>
    4208:	00 
    4209:	66 44 0f d5 1d 00 00 	pmullw xmm11,XMMWORD PTR [rip+0x0]        # 4212 <x264_8_intra_sa8d_x3_8x8_sse2+0x2d2>
    4210:	00 00 
    4212:	66 41 0f fd f2       	paddw  xmm6,xmm10
    4217:	66 45 0f fd cb       	paddw  xmm9,xmm11
    421c:	f2 44 0f 70 d6 b1    	pshuflw xmm10,xmm6,0xb1
    4222:	f2 45 0f 70 d9 b1    	pshuflw xmm11,xmm9,0xb1
    4228:	f3 45 0f 70 d2 b1    	pshufhw xmm10,xmm10,0xb1
    422e:	f3 45 0f 70 db b1    	pshufhw xmm11,xmm11,0xb1
    4234:	66 0f d5 35 00 00 00 	pmullw xmm6,XMMWORD PTR [rip+0x0]        # 423c <x264_8_intra_sa8d_x3_8x8_sse2+0x2fc>
    423b:	00 
    423c:	66 44 0f d5 1d 00 00 	pmullw xmm11,XMMWORD PTR [rip+0x0]        # 4245 <x264_8_intra_sa8d_x3_8x8_sse2+0x305>
    4243:	00 00 
    4245:	66 41 0f fd f2       	paddw  xmm6,xmm10
    424a:	66 45 0f fd cb       	paddw  xmm9,xmm11
    424f:	66 44 0f 6f d6       	movdqa xmm10,xmm6
    4254:	66 45 0f fd d1       	paddw  xmm10,xmm9
    4259:	66 44 0f fd 15 00 00 	paddw  xmm10,XMMWORD PTR [rip+0x0]        # 4262 <x264_8_intra_sa8d_x3_8x8_sse2+0x322>
    4260:	00 00 
    4262:	66 44 0f db 15 00 00 	pand   xmm10,XMMWORD PTR [rip+0x0]        # 426b <x264_8_intra_sa8d_x3_8x8_sse2+0x32b>
    4269:	00 00 
    426b:	66 0f 71 f6 03       	psllw  xmm6,0x3
    4270:	66 41 0f 71 f2 02    	psllw  xmm10,0x2
    4276:	66 0f f9 f0          	psubw  xmm6,xmm0
    427a:	66 44 0f f9 d0       	psubw  xmm10,xmm0
    427f:	66 0f 61 c5          	punpcklwd xmm0,xmm5
    4283:	66 0f 61 fc          	punpcklwd xmm7,xmm4
    4287:	66 44 0f 61 c1       	punpcklwd xmm8,xmm1
    428c:	66 0f 61 d3          	punpcklwd xmm2,xmm3
    4290:	66 0f ef ed          	pxor   xmm5,xmm5
    4294:	66 41 0f f9 ea       	psubw  xmm5,xmm10
    4299:	66 44 0f ee d5       	pmaxsw xmm10,xmm5
    429e:	66 45 0f fd d4       	paddw  xmm10,xmm12
    42a3:	66 0f 62 c7          	punpckldq xmm0,xmm7
    42a7:	66 44 0f 62 c2       	punpckldq xmm8,xmm2
    42ac:	41 0f 16 c0          	movlhps xmm0,xmm8
    42b0:	66 41 0f 71 f1 03    	psllw  xmm9,0x3
    42b6:	66 41 0f 6f fa       	movdqa xmm7,xmm10
    42bb:	66 0f 73 df 02       	psrldq xmm7,0x2
    42c0:	66 41 0f f9 c1       	psubw  xmm0,xmm9
    42c5:	66 0f ef ed          	pxor   xmm5,xmm5
    42c9:	66 0f ef e4          	pxor   xmm4,xmm4
    42cd:	66 0f f9 ee          	psubw  xmm5,xmm6
    42d1:	66 0f f9 e0          	psubw  xmm4,xmm0
    42d5:	66 0f ee f5          	pmaxsw xmm6,xmm5
    42d9:	66 0f ee c4          	pmaxsw xmm0,xmm4
    42dd:	66 41 0f fd f4       	paddw  xmm6,xmm12
    42e2:	66 0f dd f8          	paddusw xmm7,xmm0
    42e6:	0f 28 1d 00 00 00 00 	movaps xmm3,XMMWORD PTR [rip+0x0]        # 42ed <x264_8_intra_sa8d_x3_8x8_sse2+0x3ad>
    42ed:	66 0f 6f c3          	movdqa xmm0,xmm3
    42f1:	66 41 0f df c2       	pandn  xmm0,xmm10
    42f6:	66 41 0f 72 d2 10    	psrld  xmm10,0x10
    42fc:	66 0f 6f eb          	movdqa xmm5,xmm3
    4300:	66 0f df ee          	pandn  xmm5,xmm6
    4304:	66 0f 72 d6 10       	psrld  xmm6,0x10
    4309:	66 0f df df          	pandn  xmm3,xmm7
    430d:	66 0f 72 d7 10       	psrld  xmm7,0x10
    4312:	66 41 0f fe c2       	paddd  xmm0,xmm10
    4317:	66 0f fe ee          	paddd  xmm5,xmm6
    431b:	66 0f fe fb          	paddd  xmm7,xmm3
    431f:	66 0f 70 e0 b1       	pshufd xmm4,xmm0,0xb1
    4324:	66 44 0f 6f c7       	movdqa xmm8,xmm7
    4329:	66 44 0f 6a c5       	punpckhdq xmm8,xmm5
    432e:	66 0f 62 fd          	punpckldq xmm7,xmm5
    4332:	66 0f fe e0          	paddd  xmm4,xmm0
    4336:	66 41 0f fe f8       	paddd  xmm7,xmm8
    433b:	66 0f 6f c7          	movdqa xmm0,xmm7
    433f:	66 0f 6d c4          	punpckhqdq xmm0,xmm4
    4343:	0f 16 fc             	movlhps xmm7,xmm4
    4346:	66 0f fe 05 00 00 00 	paddd  xmm0,XMMWORD PTR [rip+0x0]        # 434e <x264_8_intra_sa8d_x3_8x8_sse2+0x40e>
    434d:	00 
    434e:	66 0f fe c7          	paddd  xmm0,xmm7
    4352:	66 0f 72 d0 02       	psrld  xmm0,0x2
    4357:	0f 29 02             	movaps XMMWORD PTR [rdx],xmm0
    435a:	c3                   	ret    
    435b:	0f 1f 44 00 00       	nop    DWORD PTR [rax+rax*1+0x0]

0000000000004360 <x264_8_intra_satd_x3_4x4_mmx2>:
    4360:	e8 9b e4 ff ff       	call   2800 <x264_8_hadamard_load>
    4365:	0f 6e 4e 1c          	movd   mm1,DWORD PTR [rsi+0x1c]
    4369:	0f c4 4e fe 00       	pinsrw mm1,WORD PTR [rsi-0x2],0x0
    436e:	0f c4 4e 3e 02       	pinsrw mm1,WORD PTR [rsi+0x3e],0x2
    4373:	0f c4 4e 5e 03       	pinsrw mm1,WORD PTR [rsi+0x5e],0x3
    4378:	0f 71 d1 08          	psrlw  mm1,0x8
    437c:	0f 70 e9 4e          	pshufw mm5,mm1,0x4e
    4380:	0f d5 2d 00 00 00 00 	pmullw mm5,QWORD PTR [rip+0x0]        # 4387 <x264_8_intra_satd_x3_4x4_mmx2+0x27>
    4387:	0f fd cd             	paddw  mm1,mm5
    438a:	0f 70 e9 b1          	pshufw mm5,mm1,0xb1
    438e:	0f d5 2d 00 00 00 00 	pmullw mm5,QWORD PTR [rip+0x0]        # 4395 <x264_8_intra_satd_x3_4x4_mmx2+0x35>
    4395:	0f fd cd             	paddw  mm1,mm5
    4398:	0f 71 f1 02          	psllw  mm1,0x2
    439c:	0f 7f 4c 24 f0       	movq   QWORD PTR [rsp-0x10],mm1
    43a1:	0f 6e 76 e0          	movd   mm6,DWORD PTR [rsi-0x20]
    43a5:	0f ef ff             	pxor   mm7,mm7
    43a8:	0f 60 f7             	punpcklbw mm6,mm7
    43ab:	0f 70 ee 4e          	pshufw mm5,mm6,0x4e
    43af:	0f d5 2d 00 00 00 00 	pmullw mm5,QWORD PTR [rip+0x0]        # 43b6 <x264_8_intra_satd_x3_4x4_mmx2+0x56>
    43b6:	0f fd f5             	paddw  mm6,mm5
    43b9:	0f 70 ee b1          	pshufw mm5,mm6,0xb1
    43bd:	0f d5 2d 00 00 00 00 	pmullw mm5,QWORD PTR [rip+0x0]        # 43c4 <x264_8_intra_satd_x3_4x4_mmx2+0x64>
    43c4:	0f fd f5             	paddw  mm6,mm5
    43c7:	0f 71 f6 02          	psllw  mm6,0x2
    43cb:	0f 7f 74 24 f8       	movq   QWORD PTR [rsp-0x8],mm6
    43d0:	0f fd f1             	paddw  mm6,mm1
    43d3:	0f e3 35 00 00 00 00 	pavgw  mm6,QWORD PTR [rip+0x0]        # 43da <x264_8_intra_satd_x3_4x4_mmx2+0x7a>
    43da:	0f db 35 00 00 00 00 	pand   mm6,QWORD PTR [rip+0x0]        # 43e1 <x264_8_intra_satd_x3_4x4_mmx2+0x81>
    43e1:	0f ef c9             	pxor   mm1,mm1
    43e4:	0f ef ed             	pxor   mm5,mm5
    43e7:	0f f9 cb             	psubw  mm1,mm3
    43ea:	0f f9 ec             	psubw  mm5,mm4
    43ed:	0f ee cb             	pmaxsw mm1,mm3
    43f0:	0f ee ec             	pmaxsw mm5,mm4
    43f3:	0f ef ff             	pxor   mm7,mm7
    43f6:	0f f9 fa             	psubw  mm7,mm2
    43f9:	0f ee fa             	pmaxsw mm7,mm2
    43fc:	0f fd cd             	paddw  mm1,mm5
    43ff:	0f fd f9             	paddw  mm7,mm1
    4402:	0f 6f 4c 24 f0       	movq   mm1,QWORD PTR [rsp-0x10]
    4407:	0f 6f ee             	movq   mm5,mm6
    440a:	0f f9 c8             	psubw  mm1,mm0
    440d:	0f f9 e8             	psubw  mm5,mm0
    4410:	0f 61 c3             	punpcklwd mm0,mm3
    4413:	0f 61 e2             	punpcklwd mm4,mm2
    4416:	0f 62 c4             	punpckldq mm0,mm4
    4419:	0f f9 44 24 f8       	psubw  mm0,QWORD PTR [rsp-0x8]
    441e:	0f ef e4             	pxor   mm4,mm4
    4421:	0f ef d2             	pxor   mm2,mm2
    4424:	0f f9 e1             	psubw  mm4,mm1
    4427:	0f f9 d5             	psubw  mm2,mm5
    442a:	0f ee cc             	pmaxsw mm1,mm4
    442d:	0f ee ea             	pmaxsw mm5,mm2
    4430:	0f ef db             	pxor   mm3,mm3
    4433:	0f f9 d8             	psubw  mm3,mm0
    4436:	0f ee c3             	pmaxsw mm0,mm3
    4439:	0f fd cf             	paddw  mm1,mm7
    443c:	0f fd ef             	paddw  mm5,mm7
    443f:	0f 6f dd             	movq   mm3,mm5
    4442:	0f 73 d3 10          	psrlq  mm3,0x10
    4446:	0f fd c3             	paddw  mm0,mm3
    4449:	0f ef f6             	pxor   mm6,mm6
    444c:	0f 70 d8 4e          	pshufw mm3,mm0,0x4e
    4450:	0f 70 e1 4e          	pshufw mm4,mm1,0x4e
    4454:	0f 70 d5 4e          	pshufw mm2,mm5,0x4e
    4458:	0f fd c3             	paddw  mm0,mm3
    445b:	0f fd cc             	paddw  mm1,mm4
    445e:	0f fd ea             	paddw  mm5,mm2
    4461:	0f 61 c6             	punpcklwd mm0,mm6
    4464:	0f 61 ce             	punpcklwd mm1,mm6
    4467:	0f 61 ee             	punpcklwd mm5,mm6
    446a:	0f 70 d8 4e          	pshufw mm3,mm0,0x4e
    446e:	0f 70 e1 4e          	pshufw mm4,mm1,0x4e
    4472:	0f 70 d5 4e          	pshufw mm2,mm5,0x4e
    4476:	0f e3 c3             	pavgw  mm0,mm3
    4479:	0f e3 cc             	pavgw  mm1,mm4
    447c:	0f e3 ea             	pavgw  mm5,mm2
    447f:	0f 7e 02             	movd   DWORD PTR [rdx],mm0
    4482:	0f 7e 4a 04          	movd   DWORD PTR [rdx+0x4],mm1
    4486:	0f 7e 6a 08          	movd   DWORD PTR [rdx+0x8],mm5
    448a:	c3                   	ret    
    448b:	0f 1f 44 00 00       	nop    DWORD PTR [rax+rax*1+0x0]

0000000000004490 <x264_8_intra_satd_x3_16x16_mmx2>:
    4490:	48 83 ec 78          	sub    rsp,0x78
    4494:	0f ef ff             	pxor   mm7,mm7
    4497:	0f 7f 7c 24 40       	movq   QWORD PTR [rsp+0x40],mm7
    449c:	0f 7f 7c 24 48       	movq   QWORD PTR [rsp+0x48],mm7
    44a1:	0f 7f 7c 24 50       	movq   QWORD PTR [rsp+0x50],mm7
    44a6:	b9 0c 00 00 00       	mov    ecx,0xc
    44ab:	0f 6e 35 00 00 00 00 	movd   mm6,DWORD PTR [rip+0x0]        # 44b2 <x264_8_intra_satd_x3_16x16_mmx2+0x22>
    44b2:	c1 e1 05             	shl    ecx,0x5
    44b5:	0f 6e 44 31 1c       	movd   mm0,DWORD PTR [rcx+rsi*1+0x1c]
    44ba:	0f c4 44 31 fe 00    	pinsrw mm0,WORD PTR [rcx+rsi*1-0x2],0x0
    44c0:	0f c4 44 31 3e 02    	pinsrw mm0,WORD PTR [rcx+rsi*1+0x3e],0x2
    44c6:	0f c4 44 31 5e 03    	pinsrw mm0,WORD PTR [rcx+rsi*1+0x5e],0x3
    44cc:	0f 71 d0 08          	psrlw  mm0,0x8
    44d0:	c1 e9 05             	shr    ecx,0x5
    44d3:	0f 70 c8 4e          	pshufw mm1,mm0,0x4e
    44d7:	0f d5 0d 00 00 00 00 	pmullw mm1,QWORD PTR [rip+0x0]        # 44de <x264_8_intra_satd_x3_16x16_mmx2+0x4e>
    44de:	0f fd c1             	paddw  mm0,mm1
    44e1:	0f 70 c8 b1          	pshufw mm1,mm0,0xb1
    44e5:	0f d5 0d 00 00 00 00 	pmullw mm1,QWORD PTR [rip+0x0]        # 44ec <x264_8_intra_satd_x3_16x16_mmx2+0x5c>
    44ec:	0f fd c1             	paddw  mm0,mm1
    44ef:	0f 71 f0 02          	psllw  mm0,0x2
    44f3:	0f 7f 04 4c          	movq   QWORD PTR [rsp+rcx*2],mm0
    44f7:	0f 6e 4c 0e e0       	movd   mm1,DWORD PTR [rsi+rcx*1-0x20]
    44fc:	0f ef db             	pxor   mm3,mm3
    44ff:	0f 60 cb             	punpcklbw mm1,mm3
    4502:	0f 70 d1 4e          	pshufw mm2,mm1,0x4e
    4506:	0f d5 15 00 00 00 00 	pmullw mm2,QWORD PTR [rip+0x0]        # 450d <x264_8_intra_satd_x3_16x16_mmx2+0x7d>
    450d:	0f fd ca             	paddw  mm1,mm2
    4510:	0f 70 d1 b1          	pshufw mm2,mm1,0xb1
    4514:	0f d5 15 00 00 00 00 	pmullw mm2,QWORD PTR [rip+0x0]        # 451b <x264_8_intra_satd_x3_16x16_mmx2+0x8b>
    451b:	0f fd ca             	paddw  mm1,mm2
    451e:	0f 71 f1 02          	psllw  mm1,0x2
    4522:	0f 7f 4c 4c 20       	movq   QWORD PTR [rsp+rcx*2+0x20],mm1
    4527:	0f e3 c1             	pavgw  mm0,mm1
    452a:	0f fd f0             	paddw  mm6,mm0
    452d:	83 e9 04             	sub    ecx,0x4
    4530:	7d 80                	jge    44b2 <x264_8_intra_satd_x3_16x16_mmx2+0x22>
    4532:	0f 71 d6 02          	psrlw  mm6,0x2
    4536:	0f db 35 00 00 00 00 	pand   mm6,QWORD PTR [rip+0x0]        # 453d <x264_8_intra_satd_x3_16x16_mmx2+0xad>
    453d:	48 c7 c1 fc ff ff ff 	mov    rcx,0xfffffffffffffffc
    4544:	49 c7 c0 fc ff ff ff 	mov    r8,0xfffffffffffffffc
    454b:	e8 b0 e2 ff ff       	call   2800 <x264_8_hadamard_load>
    4550:	0f ef c9             	pxor   mm1,mm1
    4553:	0f ef ed             	pxor   mm5,mm5
    4556:	0f f9 cb             	psubw  mm1,mm3
    4559:	0f f9 ec             	psubw  mm5,mm4
    455c:	0f ee cb             	pmaxsw mm1,mm3
    455f:	0f ee ec             	pmaxsw mm5,mm4
    4562:	0f ef ff             	pxor   mm7,mm7
    4565:	0f f9 fa             	psubw  mm7,mm2
    4568:	0f ee fa             	pmaxsw mm7,mm2
    456b:	0f fd cd             	paddw  mm1,mm5
    456e:	0f fd f9             	paddw  mm7,mm1
    4571:	0f 6f 4c cc 20       	movq   mm1,QWORD PTR [rsp+rcx*8+0x20]
    4576:	0f 6f ee             	movq   mm5,mm6
    4579:	0f f9 c8             	psubw  mm1,mm0
    457c:	0f f9 e8             	psubw  mm5,mm0
    457f:	0f 61 c3             	punpcklwd mm0,mm3
    4582:	0f 61 e2             	punpcklwd mm4,mm2
    4585:	0f 62 c4             	punpckldq mm0,mm4
    4588:	42 0f f9 44 c4 40    	psubw  mm0,QWORD PTR [rsp+r8*8+0x40]
    458e:	0f ef e4             	pxor   mm4,mm4
    4591:	0f ef d2             	pxor   mm2,mm2
    4594:	0f f9 e1             	psubw  mm4,mm1
    4597:	0f f9 d5             	psubw  mm2,mm5
    459a:	0f ee cc             	pmaxsw mm1,mm4
    459d:	0f ee ea             	pmaxsw mm5,mm2
    45a0:	0f ef db             	pxor   mm3,mm3
    45a3:	0f f9 d8             	psubw  mm3,mm0
    45a6:	0f ee c3             	pmaxsw mm0,mm3
    45a9:	0f e3 cf             	pavgw  mm1,mm7
    45ac:	0f e3 ef             	pavgw  mm5,mm7
    45af:	0f fd 44 24 40       	paddw  mm0,QWORD PTR [rsp+0x40]
    45b4:	0f fd 4c 24 48       	paddw  mm1,QWORD PTR [rsp+0x48]
    45b9:	0f fd 6c 24 50       	paddw  mm5,QWORD PTR [rsp+0x50]
    45be:	0f 7f 44 24 40       	movq   QWORD PTR [rsp+0x40],mm0
    45c3:	0f 7f 4c 24 48       	movq   QWORD PTR [rsp+0x48],mm1
    45c8:	0f 7f 6c 24 50       	movq   QWORD PTR [rsp+0x50],mm5
    45cd:	48 83 c7 04          	add    rdi,0x4
    45d1:	49 ff c0             	inc    r8
    45d4:	0f 8c 71 ff ff ff    	jl     454b <x264_8_intra_satd_x3_16x16_mmx2+0xbb>
    45da:	48 83 c7 30          	add    rdi,0x30
    45de:	48 ff c1             	inc    rcx
